 DangerousFlight

 Timestamp is 553a3949 (Fri Apr 24 13:38:33 2015)

 Preferred load address is 00400000

 Start         Length     Name                   Class
 0001:00000000 00001d6cH .text                   CODE
 0001:00001d70 00001143H .text$di                CODE
 0001:00002ec0 000123d5H .text$mn                CODE
 0001:000152a0 00001864H .text$x                 CODE
 0001:00016b10 0000106eH .text$yd                CODE
 0002:00000000 00000104H .CRT$XCA                DATA
 0002:00000104 00000104H .CRT$XCAA               DATA
 0002:00000208 00000104H .CRT$XCL                DATA
 0002:0000030c 00000125H .CRT$XCU                DATA
 0002:00000434 00000104H .CRT$XCZ                DATA
 0002:00000538 00000104H .CRT$XIA                DATA
 0002:0000063c 00000104H .CRT$XIAA               DATA
 0002:00000740 00000104H .CRT$XIC                DATA
 0002:00000844 00000104H .CRT$XIY                DATA
 0002:00000948 00000104H .CRT$XIZ                DATA
 0002:00000a50 00000ac3H .rdata                  DATA
 0002:00001514 00000190H .rdata$debug            DATA
 0002:000016a4 00000c2eH .rdata$r                DATA
 0002:000022e0 00000199H .rdata$sxdata           DATA
 0002:0000247c 00000104H .rtc$IAA                DATA
 0002:00002580 00000104H .rtc$IZZ                DATA
 0002:00002684 00000104H .rtc$TAA                DATA
 0002:00002788 00000104H .rtc$TZZ                DATA
 0002:00002890 00000ab4H .xdata$x                DATA
 0002:00003344 00000000H .edata                  DATA
 0003:00000000 00000139H .data                   DATA
 0003:00000140 000006e6H .data$r                 DATA
 0003:00000828 000003c5H .bss                    DATA
 0004:00000000 00000490H .idata$5                DATA
 0004:00000490 0000008cH .idata$2                DATA
 0004:0000051c 00000014H .idata$3                DATA
 0004:00000530 00000490H .idata$4                DATA
 0004:000009c0 00001b7eH .idata$6                DATA
 0005:00000000 00000169H .rsrc$01                DATA
 0005:00000170 000003ecH .rsrc$02                DATA

  Address         Publics by Value              Rva+Base       Lib:Object

 0000:00000000       ___guard_fids_table        00000000     <absolute>
 0000:00000000       ___guard_fids_count        00000000     <absolute>
 0000:00000000       ___guard_flags             00000000     <absolute>
 0000:00000000       __except_list              00000000     <absolute>
 0000:00000020       ___safe_se_handler_count   00000020     <absolute>
 0000:00009876       __ldused                   00009876     <absolute>
 0000:00009876       __fltused                  00009876     <absolute>
 0000:00000000       ___ImageBase               00400000     <linker-defined>
 0001:00001070       _main                      00402070 f   sdlmain:SDL_win32_main.obj
 0001:00001170       _WinMain@16                00402170 f   sdlmain:SDL_win32_main.obj
 0001:00002ec0       ??0Bullet@@QAE@PAVBaseEngine@@@Z 00403ec0 f   Bullet.obj
 0001:00002fe0       ??0ImageSurface@@QAE@XZ    00403fe0 f i Bullet.obj
 0001:00003010       ??1Bullet@@UAE@XZ          00404010 f   Bullet.obj
 0001:00003040       ??_GBullet@@UAEPAXI@Z      00404040 f i Bullet.obj
 0001:00003040       ??_EBullet@@UAEPAXI@Z      00404040 f i Bullet.obj
 0001:00003090       ?DoUpdate@Bullet@@UAEXH@Z  00404090 f   Bullet.obj
 0001:000030e0       ?Draw@Bullet@@UAEXXZ       004040e0 f   Bullet.obj
 0001:00003170       ?GetEngine@DisplayableObject@@QAEPAVBaseEngine@@XZ 00404170 f i Bullet.obj
 0001:00003190       ?GetForeground@BaseEngine@@QAEPAUSDL_Surface@@XZ 00404190 f i Bullet.obj
 0001:000031b0       ?GetHeight@ImageSurface@@QAEHXZ 004041b0 f i Bullet.obj
 0001:000031e0       ?GetWidth@ImageSurface@@QAEHXZ 004041e0 f i Bullet.obj
 0001:00003210       ?IsVisible@DisplayableObject@@QAE_NXZ 00404210 f i Bullet.obj
 0001:00003230       ?SetVisible@DisplayableObject@@QAEX_N@Z 00404230 f i Bullet.obj
 0001:00003260       ?Shoot@Bullet@@QAEXHH@Z    00404260 f   Bullet.obj
 0001:000032b0       ??0EnemyBullet@@QAE@PAVBaseEngine@@@Z 004042b0 f   EnemyBullet.obj
 0001:000033d0       ??1EnemyBullet@@UAE@XZ     004043d0 f   EnemyBullet.obj
 0001:00003400       ??_GEnemyBullet@@UAEPAXI@Z 00404400 f i EnemyBullet.obj
 0001:00003400       ??_EEnemyBullet@@UAEPAXI@Z 00404400 f i EnemyBullet.obj
 0001:00003450       ?DoUpdate@EnemyBullet@@UAEXH@Z 00404450 f   EnemyBullet.obj
 0001:000034a0       ?Draw@EnemyBullet@@UAEXXZ  004044a0 f   EnemyBullet.obj
 0001:00003530       ?Shoot@EnemyBullet@@QAEXHH@Z 00404530 f   EnemyBullet.obj
 0001:00003580       ??0EnemyFast@@QAE@PAVBaseEngine@@@Z 00404580 f   EnemyFast.obj
 0001:000036d0       ??1EnemyFast@@UAE@XZ       004046d0 f   EnemyFast.obj
 0001:00003700       ??_EEnemyFast@@UAEPAXI@Z   00404700 f i EnemyFast.obj
 0001:00003700       ??_GEnemyFast@@UAEPAXI@Z   00404700 f i EnemyFast.obj
 0001:00003750       ?DoUpdate@EnemyFast@@UAEXH@Z 00404750 f   EnemyFast.obj
 0001:000037e0       ?Draw@EnemyFast@@UAEXXZ    004047e0 f   EnemyFast.obj
 0001:00003870       ?GetColourPixel@EnemyFast@@QAEIHH@Z 00404870 f   EnemyFast.obj
 0001:00003920       ?GetScreenHeight@BaseEngine@@QAEHXZ 00404920 f i EnemyFast.obj
 0001:00003940       ??0Image@@QAE@XZ           00404940 f   Image.obj
 0001:00003970       ??1Image@@QAE@XZ           00404970 f   Image.obj
 0001:000039a0       ??1ImageSurface@@QAE@XZ    004049a0 f i Image.obj
 0001:000039e0       ?GetImgSurface@Image@@QAEPAUSDL_Surface@@XZ 004049e0 f   Image.obj
 0001:00003a00       ??$?5DU?$char_traits@D@std@@H@std@@YAAAV?$basic_istream@DU?$char_traits@D@std@@@0@$$QAV10@AAH@Z 00404a00 f i JetShooter.obj
 0001:00003a30       ??$?6U?$char_traits@D@std@@@std@@YAAAV?$basic_ostream@DU?$char_traits@D@std@@@0@AAV10@PBD@Z 00404a30 f i JetShooter.obj
 0001:00003ec0       ??$_Allocate@D@std@@YAPADIPAD@Z 00404ec0 f i JetShooter.obj
 0001:00003f20       ??$_Fgetc@D@std@@YA_NAADPAU_iobuf@@@Z 00404f20 f i JetShooter.obj
 0001:00003f70       ??$_Fputc@D@std@@YA_NDPAU_iobuf@@@Z 00404f70 f i JetShooter.obj
 0001:00003fc0       ??$_Ungetc@D@std@@YA_NABDPAU_iobuf@@@Z 00404fc0 f i JetShooter.obj
 0001:00004010       ??$addressof@D@std@@YAPADAAD@Z 00405010 f i JetShooter.obj
 0001:00004030       ??$construct@PADAAPAD@?$_Wrap_alloc@V?$allocator@D@std@@@std@@QAEXPAPADAAPAD@Z 00405030 f i JetShooter.obj
 0001:00004070       ??$construct@PADAAPAD@?$allocator@D@std@@QAEXPAPADAAPAD@Z 00405070 f i JetShooter.obj
 0001:00004120       ??$construct@PADAAPAD@?$allocator_traits@V?$allocator@D@std@@@std@@SAXAAV?$allocator@D@1@PAPADAAPAD@Z 00405120 f i JetShooter.obj
 0001:00004160       ??$destroy@PAD@?$_Wrap_alloc@V?$allocator@D@std@@@std@@QAEXPAPAD@Z 00405160 f i JetShooter.obj
 0001:00004190       ??$destroy@PAD@?$allocator@D@std@@QAEXPAPAD@Z 00405190 f i JetShooter.obj
 0001:000041b0       ??$destroy@PAD@?$allocator_traits@V?$allocator@D@std@@@std@@SAXAAV?$allocator@D@1@PAPAD@Z 004051b0 f i JetShooter.obj
 0001:000041e0       ??$forward@AAPAD@std@@YAAAPADAAPAD@Z 004051e0 f i JetShooter.obj
 0001:00004200       ??$getline@DU?$char_traits@D@std@@V?$allocator@D@2@@std@@YAAAV?$basic_istream@DU?$char_traits@D@std@@@0@$$QAV10@AAV?$basic_string@DU?$char_traits@D@std@@V?$allocator@D@2@@0@D@Z 00405200 f i JetShooter.obj
 0001:00004480       ??$getline@DU?$char_traits@D@std@@V?$allocator@D@2@@std@@YAAAV?$basic_istream@DU?$char_traits@D@std@@@0@AAV10@AAV?$basic_string@DU?$char_traits@D@std@@V?$allocator@D@2@@0@@Z 00405480 f i JetShooter.obj
 0001:000044e0       ??$move@AAV?$basic_istream@DU?$char_traits@D@std@@@std@@@std@@YA$$QAV?$basic_istream@DU?$char_traits@D@std@@@0@AAV10@@Z 004054e0 f i JetShooter.obj
 0001:00004500       ??$use_facet@V?$codecvt@DDH@std@@@std@@YAABV?$codecvt@DDH@0@ABVlocale@0@@Z 00405500 f i JetShooter.obj
 0001:00004650       ??0?$_String_alloc@$0A@U?$_String_base_types@DV?$allocator@D@std@@@std@@@std@@QAE@ABV?$allocator@D@1@@Z 00405650 f i JetShooter.obj
 0001:00004680       ??0?$_String_const_iterator@V?$_String_val@U?$_Simple_types@D@std@@@std@@@std@@QAE@PBDPBU_Container_base0@1@@Z 00405680 f i JetShooter.obj
 0001:000046c0       ??0?$_String_iterator@V?$_String_val@U?$_Simple_types@D@std@@@std@@@std@@QAE@PADPBU_Container_base0@1@@Z 004056c0 f i JetShooter.obj
 0001:00004700       ??0?$_String_val@U?$_Simple_types@D@std@@@std@@QAE@XZ 00405700 f i JetShooter.obj
 0001:00004740       ??0?$_Wrap_alloc@V?$allocator@D@std@@@std@@QAE@XZ 00405740 f i JetShooter.obj
 0001:00004770       ??0?$allocator@D@std@@QAE@XZ 00405770 f i JetShooter.obj
 0001:00004790       ??0?$basic_filebuf@DU?$char_traits@D@std@@@std@@QAE@PAU_iobuf@@@Z 00405790 f i JetShooter.obj
 0001:00004820       ??0?$basic_ifstream@DU?$char_traits@D@std@@@std@@QAE@PBDHH@Z 00405820 f i JetShooter.obj
 0001:00004970       ??0?$basic_ofstream@DU?$char_traits@D@std@@@std@@QAE@PBDHH@Z 00405970 f i JetShooter.obj
 0001:00004ac0       ??0?$basic_string@DU?$char_traits@D@std@@V?$allocator@D@2@@std@@QAE@ID@Z 00405ac0 f i JetShooter.obj
 0001:00004b20       ??0?$basic_string@DU?$char_traits@D@std@@V?$allocator@D@2@@std@@QAE@PBD@Z 00405b20 f i JetShooter.obj
 0001:00004b80       ??0?$basic_string@DU?$char_traits@D@std@@V?$allocator@D@2@@std@@QAE@XZ 00405b80 f i JetShooter.obj
 0001:00004bc0       ??0?$basic_stringbuf@DU?$char_traits@D@std@@V?$allocator@D@2@@std@@QAE@ABV?$basic_string@DU?$char_traits@D@std@@V?$allocator@D@2@@1@H@Z 00405bc0 f i JetShooter.obj
 0001:00004c80       ??0?$basic_stringstream@DU?$char_traits@D@std@@V?$allocator@D@2@@std@@QAE@ABV?$basic_string@DU?$char_traits@D@std@@V?$allocator@D@2@@1@H@Z 00405c80 f i JetShooter.obj
 0001:00004da0       ??0?$fpos@H@std@@QAE@H_J@Z 00405da0 f i JetShooter.obj
 0001:00004df0       ??0?$fpos@H@std@@QAE@_J@Z  00405df0 f i JetShooter.obj
 0001:00004e50       ??0JetShooter@@QAE@XZ      00405e50 f   JetShooter.obj
 0001:00004ea0       ??0_Generic_error_category@std@@QAE@XZ 00405ea0 f i JetShooter.obj
 0001:00004ed0       ??0_Iostream_error_category@std@@QAE@XZ 00405ed0 f i JetShooter.obj
 0001:00004f00       ??0_Sentry_base@?$basic_istream@DU?$char_traits@D@std@@@std@@QAE@AAV12@@Z 00405f00 f i JetShooter.obj
 0001:00004f80       ??0_Sentry_base@?$basic_ostream@DU?$char_traits@D@std@@@std@@QAE@AAV12@@Z 00405f80 f i JetShooter.obj
 0001:00005000       ??0_System_error_category@std@@QAE@XZ 00406000 f i JetShooter.obj
 0001:00005030       ??0error_category@std@@QAE@XZ 00406030 f i JetShooter.obj
 0001:00005060       ??0error_condition@std@@QAE@HABVerror_category@1@@Z 00406060 f i JetShooter.obj
 0001:000050a0       ??0sentry@?$basic_istream@DU?$char_traits@D@std@@@std@@QAE@AAV12@_N@Z 004060a0 f i JetShooter.obj
 0001:00005130       ??0sentry@?$basic_ostream@DU?$char_traits@D@std@@@std@@QAE@AAV12@@Z 00406130 f i JetShooter.obj
 0001:00005240       ??1?$basic_filebuf@DU?$char_traits@D@std@@@std@@UAE@XZ 00406240 f i JetShooter.obj
 0001:000052a0       ??1?$basic_ifstream@DU?$char_traits@D@std@@@std@@UAE@XZ 004062a0 f i JetShooter.obj
 0001:00005310       ??1?$basic_ofstream@DU?$char_traits@D@std@@@std@@UAE@XZ 00406310 f i JetShooter.obj
 0001:00005380       ??1?$basic_string@DU?$char_traits@D@std@@V?$allocator@D@2@@std@@QAE@XZ 00406380 f i JetShooter.obj
 0001:000053b0       ??1?$basic_stringbuf@DU?$char_traits@D@std@@V?$allocator@D@2@@std@@UAE@XZ 004063b0 f i JetShooter.obj
 0001:000053f0       ??1?$basic_stringstream@DU?$char_traits@D@std@@V?$allocator@D@2@@std@@UAE@XZ 004063f0 f i JetShooter.obj
 0001:00005460       ??1JetShooter@@UAE@XZ      00406460 f   JetShooter.obj
 0001:00005490       ??1_Generic_error_category@std@@UAE@XZ 00406490 f i JetShooter.obj
 0001:000054c0       ??1_Iostream_error_category@std@@UAE@XZ 004064c0 f i JetShooter.obj
 0001:000054f0       ??1_Sentry_base@?$basic_istream@DU?$char_traits@D@std@@@std@@QAE@XZ 004064f0 f i JetShooter.obj
 0001:00005560       ??1_Sentry_base@?$basic_ostream@DU?$char_traits@D@std@@@std@@QAE@XZ 00406560 f i JetShooter.obj
 0001:000055d0       ??1_System_error_category@std@@UAE@XZ 004065d0 f i JetShooter.obj
 0001:00005600       ??1error_category@std@@UAE@XZ 00406600 f i JetShooter.obj
 0001:00005630       ??1locale@std@@QAE@XZ      00406630 f i JetShooter.obj
 0001:000056a0       ??1sentry@?$basic_istream@DU?$char_traits@D@std@@@std@@QAE@XZ 004066a0 f i JetShooter.obj
 0001:000056d0       ??1sentry@?$basic_ostream@DU?$char_traits@D@std@@@std@@QAE@XZ 004066d0 f i JetShooter.obj
 0001:00005710       ??2@YAPAXIPAX@Z            00406710 f i JetShooter.obj
 0001:00005730       ??3@YAXPAX0@Z              00406730 f i JetShooter.obj
 0001:00005750       ??8error_category@std@@QBE_NABV01@@Z 00406750 f i JetShooter.obj
 0001:00005790       ??8error_condition@std@@QBE_NABV01@@Z 00406790 f i JetShooter.obj
 0001:00005810       ??B?$fpos@H@std@@QBE_JXZ   00406810 f i JetShooter.obj
 0001:00005850       ??Bsentry@?$basic_istream@DU?$char_traits@D@std@@@std@@QBE_NXZ 00406850 f i JetShooter.obj
 0001:00005870       ??Bsentry@?$basic_ostream@DU?$char_traits@D@std@@@std@@QBE_NXZ 00406870 f i JetShooter.obj
 0001:00005890       ??D?$_String_const_iterator@V?$_String_val@U?$_Simple_types@D@std@@@std@@@std@@QBEABDXZ 00406890 f i JetShooter.obj
 0001:000058b0       ??D?$_String_iterator@V?$_String_val@U?$_Simple_types@D@std@@@std@@@std@@QBEAADXZ 004068b0 f i JetShooter.obj
 0001:000058e0       ??Y?$basic_string@DU?$char_traits@D@std@@V?$allocator@D@2@@std@@QAEAAV01@D@Z 004068e0 f i JetShooter.obj
 0001:00005910       ??_D?$basic_ifstream@DU?$char_traits@D@std@@@std@@QAEXXZ 00406910 f i JetShooter.obj
 0001:00005950       ??_D?$basic_ofstream@DU?$char_traits@D@std@@@std@@QAEXXZ 00406950 f i JetShooter.obj
 0001:00005990       ??_D?$basic_stringstream@DU?$char_traits@D@std@@V?$allocator@D@2@@std@@QAEXXZ 00406990 f i JetShooter.obj
 0001:000059c4       ??_E?$basic_ifstream@DU?$char_traits@D@std@@@std@@$4PPPPPPPM@A@AEPAXI@Z 004069c4 f i JetShooter.obj
 0001:000059ce       ??_E?$basic_ofstream@DU?$char_traits@D@std@@@std@@$4PPPPPPPM@A@AEPAXI@Z 004069ce f i JetShooter.obj
 0001:000059d8       ??_E?$basic_stringstream@DU?$char_traits@D@std@@V?$allocator@D@2@@std@@$4PPPPPPPM@A@AEPAXI@Z 004069d8 f i JetShooter.obj
 0001:000059f0       ??_E?$basic_filebuf@DU?$char_traits@D@std@@@std@@UAEPAXI@Z 004069f0 f i JetShooter.obj
 0001:000059f0       ??_G?$basic_filebuf@DU?$char_traits@D@std@@@std@@UAEPAXI@Z 004069f0 f i JetShooter.obj
 0001:00005a40       ??_E?$basic_ifstream@DU?$char_traits@D@std@@@std@@UAEPAXI@Z 00406a40 f i JetShooter.obj
 0001:00005a40       ??_G?$basic_ifstream@DU?$char_traits@D@std@@@std@@UAEPAXI@Z 00406a40 f i JetShooter.obj
 0001:00005a90       ??_E?$basic_ofstream@DU?$char_traits@D@std@@@std@@UAEPAXI@Z 00406a90 f i JetShooter.obj
 0001:00005a90       ??_G?$basic_ofstream@DU?$char_traits@D@std@@@std@@UAEPAXI@Z 00406a90 f i JetShooter.obj
 0001:00005ae0       ??_G?$basic_stringbuf@DU?$char_traits@D@std@@V?$allocator@D@2@@std@@UAEPAXI@Z 00406ae0 f i JetShooter.obj
 0001:00005ae0       ??_E?$basic_stringbuf@DU?$char_traits@D@std@@V?$allocator@D@2@@std@@UAEPAXI@Z 00406ae0 f i JetShooter.obj
 0001:00005b30       ??_G?$basic_stringstream@DU?$char_traits@D@std@@V?$allocator@D@2@@std@@UAEPAXI@Z 00406b30 f i JetShooter.obj
 0001:00005b30       ??_E?$basic_stringstream@DU?$char_traits@D@std@@V?$allocator@D@2@@std@@UAEPAXI@Z 00406b30 f i JetShooter.obj
 0001:00005b80       ??_EJetShooter@@UAEPAXI@Z  00406b80 f i JetShooter.obj
 0001:00005b80       ??_GJetShooter@@UAEPAXI@Z  00406b80 f i JetShooter.obj
 0001:00005bd0       ??_G_Generic_error_category@std@@UAEPAXI@Z 00406bd0 f i JetShooter.obj
 0001:00005bd0       ??_E_Generic_error_category@std@@UAEPAXI@Z 00406bd0 f i JetShooter.obj
 0001:00005c20       ??_E_Iostream_error_category@std@@UAEPAXI@Z 00406c20 f i JetShooter.obj
 0001:00005c20       ??_G_Iostream_error_category@std@@UAEPAXI@Z 00406c20 f i JetShooter.obj
 0001:00005c70       ??_E_System_error_category@std@@UAEPAXI@Z 00406c70 f i JetShooter.obj
 0001:00005c70       ??_G_System_error_category@std@@UAEPAXI@Z 00406c70 f i JetShooter.obj
 0001:00005cc0       ??_Gerror_category@std@@UAEPAXI@Z 00406cc0 f i JetShooter.obj
 0001:00005cc0       ??_Eerror_category@std@@UAEPAXI@Z 00406cc0 f i JetShooter.obj
 0001:00005d10       ?Collisions@JetShooter@@QAEXXZ 00406d10 f   JetShooter.obj
 0001:000063a0       ?DrawChanges@JetShooter@@UAEXXZ 004073a0 f   JetShooter.obj
 0001:000063f0       ?DrawScreen@JetShooter@@UAEXXZ 004073f0 f   JetShooter.obj
 0001:00006440       ?DrawScreenString@BaseEngine@@QAEXHHPBDIPAVFont@@@Z 00407440 f i JetShooter.obj
 0001:00006490       ?DrawStrings@JetShooter@@UAEXXZ 00407490 f   JetShooter.obj
 0001:00006870       ?DrawableObjectsChanged@BaseEngine@@QAEXXZ 00407870 f i JetShooter.obj
 0001:000068a0       ?GameAction@JetShooter@@UAEXXZ 004078a0 f   JetShooter.obj
 0001:00006b60       ?GetFont@BaseEngine@@QAEPAVFont@@PADH@Z 00407b60 f i JetShooter.obj
 0001:00006ba0       ?GetModifiedTime@BaseEngine@@UAEHXZ 00407ba0 f i JetShooter.obj
 0001:00006bc0       ?GetScore@JetShooter@@QAEXXZ 00407bc0 f   JetShooter.obj
 0001:00006d90       ?GetScreenWidth@BaseEngine@@QAEHXZ 00407d90 f i JetShooter.obj
 0001:00006db0       ?GetTime@BaseEngine@@QAEHXZ 00407db0 f i JetShooter.obj
 0001:00006dd0       ?GetXCentre@DisplayableObject@@QAEHXZ 00407dd0 f i JetShooter.obj
 0001:00006e10       ?GetYCentre@DisplayableObject@@QAEHXZ 00407e10 f i JetShooter.obj
 0001:00006e50       ?InitialiseObjects@JetShooter@@UAEHXZ 00407e50 f   JetShooter.obj
 0001:000074a0       ?KeyDown@JetShooter@@UAEXH@Z 004084a0 f   JetShooter.obj
 0001:00007a10       ?Redraw@BaseEngine@@QAEX_N@Z 00408a10 f i JetShooter.obj
 0001:00007a50       ?SetExitWithCode@BaseEngine@@QAEXH@Z 00408a50 f i JetShooter.obj
 0001:00007a80       ?SetNextUpdateRect@BaseEngine@@QAEXHHHH@Z 00408a80 f i JetShooter.obj
 0001:00007ae0       ?SetTimeToAct@BaseEngine@@QAEXH@Z 00408ae0 f i JetShooter.obj
 0001:00007b10       ?SetupBackgroundBuffer@JetShooter@@UAEXXZ 00408b10 f   JetShooter.obj
 0001:00007cc0       ?StoreScore@JetShooter@@QAEXXZ 00408cc0 f   JetShooter.obj
 0001:00007dd0       ?TimeToAct@BaseEngine@@QAE_NXZ 00408dd0 f i JetShooter.obj
 0001:00007e20       ?_Adopt@_Iterator_base0@std@@QAEXPBX@Z 00408e20 f i JetShooter.obj
 0001:00007e40       ?_Chassign@?$basic_string@DU?$char_traits@D@std@@V?$allocator@D@2@@std@@QAEXIID@Z 00408e40 f i JetShooter.obj
 0001:00007eb0       ?_Copy@?$basic_string@DU?$char_traits@D@std@@V?$allocator@D@2@@std@@QAEXII@Z 00408eb0 f i JetShooter.obj
 0001:000080e0       ?_Endwrite@?$basic_filebuf@DU?$char_traits@D@std@@@std@@IAE_NXZ 004090e0 f i JetShooter.obj
 0001:000083a0       ?_Eos@?$basic_string@DU?$char_traits@D@std@@V?$allocator@D@2@@std@@QAEXI@Z 004093a0 f i JetShooter.obj
 0001:000083f0       ?_Getal@?$_String_alloc@$0A@U?$_String_base_types@DV?$allocator@D@std@@@std@@@std@@QBE?AU?$_Wrap_alloc@V?$allocator@D@std@@@2@XZ 004093f0 f i JetShooter.obj
 0001:00008420       ?_Getfacet@locale@std@@QBEPBVfacet@12@I@Z 00409420 f i JetShooter.obj
 0001:000084d0       ?_Getstate@?$basic_stringbuf@DU?$char_traits@D@std@@V?$allocator@D@2@@std@@AAEHH@Z 004094d0 f i JetShooter.obj
 0001:00008550       ?_Grow@?$basic_string@DU?$char_traits@D@std@@V?$allocator@D@2@@std@@QAE_NI_N@Z 00409550 f i JetShooter.obj
 0001:00008630       ?_Init@?$basic_filebuf@DU?$char_traits@D@std@@@std@@IAEXPAU_iobuf@@W4_Initfl@12@@Z 00409630 f i JetShooter.obj
 0001:00008720       ?_Init@?$basic_stringbuf@DU?$char_traits@D@std@@V?$allocator@D@2@@std@@IAEXPBDIH@Z 00409720 f i JetShooter.obj
 0001:00008870       ?_Initcvt@?$basic_filebuf@DU?$char_traits@D@std@@@std@@IAEXPBV?$codecvt@DDH@2@@Z 00409870 f i JetShooter.obj
 0001:000088d0       ?_Inside@?$basic_string@DU?$char_traits@D@std@@V?$allocator@D@2@@std@@QAE_NPBD@Z 004098d0 f i JetShooter.obj
 0001:00008930       ?_Lock@?$basic_filebuf@DU?$char_traits@D@std@@@std@@UAEXXZ 00409930 f i JetShooter.obj
 0001:00008970       ?_Myptr@?$_String_val@U?$_Simple_types@D@std@@@std@@QAEPADXZ 00409970 f i JetShooter.obj
 0001:000089c0       ?_Myptr@?$_String_val@U?$_Simple_types@D@std@@@std@@QBEPBDXZ 004099c0 f i JetShooter.obj
 0001:00008a10       ?_Reset_back@?$basic_filebuf@DU?$char_traits@D@std@@@std@@AAEXXZ 00409a10 f i JetShooter.obj
 0001:00008a70       ?_Set_back@?$basic_filebuf@DU?$char_traits@D@std@@@std@@AAEXXZ 00409a70 f i JetShooter.obj
 0001:00008af0       ?_Tidy@?$basic_string@DU?$char_traits@D@std@@V?$allocator@D@2@@std@@QAEX_NI@Z 00409af0 f i JetShooter.obj
 0001:00008bc0       ?_Tidy@?$basic_stringbuf@DU?$char_traits@D@std@@V?$allocator@D@2@@std@@IAEXXZ 00409bc0 f i JetShooter.obj
 0001:00008c90       ?_Unlock@?$basic_filebuf@DU?$char_traits@D@std@@@std@@UAEXXZ 00409c90 f i JetShooter.obj
 0001:00008cd0       ?_Xlen@?$basic_string@DU?$char_traits@D@std@@V?$allocator@D@2@@std@@QBEXXZ 00409cd0 f i JetShooter.obj
 0001:00008d00       ?_Xran@?$basic_string@DU?$char_traits@D@std@@V?$allocator@D@2@@std@@QBEXXZ 00409d00 f i JetShooter.obj
 0001:00008d30       ?allocate@?$_Wrap_alloc@V?$allocator@D@std@@@std@@QAEPADI@Z 00409d30 f i JetShooter.obj
 0001:00008d60       ?allocate@?$allocator@D@std@@QAEPADI@Z 00409d60 f i JetShooter.obj
 0001:00008d90       ?append@?$basic_string@DU?$char_traits@D@std@@V?$allocator@D@2@@std@@QAEAAV12@ID@Z 00409d90 f i JetShooter.obj
 0001:00008e30       ?assign@?$basic_string@DU?$char_traits@D@std@@V?$allocator@D@2@@std@@QAEAAV12@ABV12@II@Z 00409e30 f i JetShooter.obj
 0001:00008f10       ?assign@?$basic_string@DU?$char_traits@D@std@@V?$allocator@D@2@@std@@QAEAAV12@ID@Z 00409f10 f i JetShooter.obj
 0001:00008f90       ?assign@?$basic_string@DU?$char_traits@D@std@@V?$allocator@D@2@@std@@QAEAAV12@PBD@Z 00409f90 f i JetShooter.obj
 0001:00008fd0       ?assign@?$basic_string@DU?$char_traits@D@std@@V?$allocator@D@2@@std@@QAEAAV12@PBDI@Z 00409fd0 f i JetShooter.obj
 0001:00009080       ?assign@?$char_traits@D@std@@SAPADPADID@Z 0040a080 f i JetShooter.obj
 0001:000090b0       ?assign@?$char_traits@D@std@@SAXAADABD@Z 0040a0b0 f i JetShooter.obj
 0001:000090d0       ?begin@?$basic_string@DU?$char_traits@D@std@@V?$allocator@D@2@@std@@QAE?AV?$_String_iterator@V?$_String_val@U?$_Simple_types@D@std@@@std@@@2@XZ 0040a0d0 f i JetShooter.obj
 0001:00009110       ?c_str@?$basic_string@DU?$char_traits@D@std@@V?$allocator@D@2@@std@@QBEPBDXZ 0040a110 f i JetShooter.obj
 0001:00009140       ?category@error_code@std@@QBEABVerror_category@2@XZ 0040a140 f i JetShooter.obj
 0001:00009160       ?category@error_condition@std@@QBEABVerror_category@2@XZ 0040a160 f i JetShooter.obj
 0001:00009180       ?close@?$basic_filebuf@DU?$char_traits@D@std@@@std@@QAEPAV12@XZ 0040a180 f i JetShooter.obj
 0001:00009210       ?close@?$basic_ifstream@DU?$char_traits@D@std@@@std@@QAEXXZ 0040a210 f i JetShooter.obj
 0001:00009260       ?close@?$basic_ofstream@DU?$char_traits@D@std@@@std@@QAEXXZ 0040a260 f i JetShooter.obj
 0001:000092b0       ?copy@?$char_traits@D@std@@SAPADPADPBDI@Z 0040a2b0 f i JetShooter.obj
 0001:00009300       ?deallocate@?$_Wrap_alloc@V?$allocator@D@std@@@std@@QAEXPADI@Z 0040a300 f i JetShooter.obj
 0001:00009330       ?deallocate@?$allocator@D@std@@QAEXPADI@Z 0040a330 f i JetShooter.obj
 0001:00009360       ?default_error_condition@_System_error_category@std@@UBE?AVerror_condition@2@H@Z 0040a360 f i JetShooter.obj
 0001:000093d0       ?default_error_condition@error_category@std@@UBE?AVerror_condition@2@H@Z 0040a3d0 f i JetShooter.obj
 0001:00009410       ?eof@?$char_traits@D@std@@SAHXZ 0040a410 f i JetShooter.obj
 0001:00009430       ?eq@?$char_traits@D@std@@SA_NABD0@Z 0040a430 f i JetShooter.obj
 0001:00009470       ?eq_int_type@?$char_traits@D@std@@SA_NABH0@Z 0040a470 f i JetShooter.obj
 0001:000094b0       ?equivalent@error_category@std@@UBE_NABVerror_code@2@H@Z 0040a4b0 f i JetShooter.obj
 0001:00009510       ?equivalent@error_category@std@@UBE_NHABVerror_condition@2@@Z 0040a510 f i JetShooter.obj
 0001:00009560       ?erase@?$basic_string@DU?$char_traits@D@std@@V?$allocator@D@2@@std@@QAEAAV12@I@Z 0040a560 f i JetShooter.obj
 0001:000095b0       ?erase@?$basic_string@DU?$char_traits@D@std@@V?$allocator@D@2@@std@@QAEAAV12@II@Z 0040a5b0 f i JetShooter.obj
 0001:00009660       ?generic_category@std@@YAABVerror_category@1@XZ 0040a660 f i JetShooter.obj
 0001:00009680       ?imbue@?$basic_filebuf@DU?$char_traits@D@std@@@std@@MAEXABVlocale@2@@Z 0040a680 f i JetShooter.obj
 0001:000096c0       ?is_open@?$basic_filebuf@DU?$char_traits@D@std@@@std@@QBE_NXZ 0040a6c0 f i JetShooter.obj
 0001:00009700       ?is_open@?$basic_ifstream@DU?$char_traits@D@std@@@std@@QBE_NXZ 0040a700 f i JetShooter.obj
 0001:00009730       ?is_open@?$basic_ofstream@DU?$char_traits@D@std@@@std@@QBE_NXZ 0040a730 f i JetShooter.obj
 0001:00009760       ?length@?$char_traits@D@std@@SAIPBD@Z 0040a760 f i JetShooter.obj
 0001:000097b0       ?max_size@?$_Wrap_alloc@V?$allocator@D@std@@@std@@QBEIXZ 0040a7b0 f i JetShooter.obj
 0001:000097e0       ?max_size@?$allocator@D@std@@QBEIXZ 0040a7e0 f i JetShooter.obj
 0001:00009800       ?max_size@?$allocator_traits@V?$allocator@D@std@@@std@@SAIABV?$allocator@D@2@@Z 0040a800 f i JetShooter.obj
 0001:00009820       ?max_size@?$basic_string@DU?$char_traits@D@std@@V?$allocator@D@2@@std@@QBEIXZ 0040a820 f i JetShooter.obj
 0001:00009880       ?message@_Generic_error_category@std@@UBE?AV?$basic_string@DU?$char_traits@D@std@@V?$allocator@D@2@@2@H@Z 0040a880 f i JetShooter.obj
 0001:000098f0       ?message@_Iostream_error_category@std@@UBE?AV?$basic_string@DU?$char_traits@D@std@@V?$allocator@D@2@@2@H@Z 0040a8f0 f i JetShooter.obj
 0001:00009970       ?message@_System_error_category@std@@UBE?AV?$basic_string@DU?$char_traits@D@std@@V?$allocator@D@2@@2@H@Z 0040a970 f i JetShooter.obj
 0001:000099e0       ?move@?$char_traits@D@std@@SAPADPADPBDI@Z 0040a9e0 f i JetShooter.obj
 0001:00009a30       ?name@_Generic_error_category@std@@UBEPBDXZ 0040aa30 f i JetShooter.obj
 0001:00009a50       ?name@_Iostream_error_category@std@@UBEPBDXZ 0040aa50 f i JetShooter.obj
 0001:00009a70       ?name@_System_error_category@std@@UBEPBDXZ 0040aa70 f i JetShooter.obj
 0001:00009a90       ?not_eof@?$char_traits@D@std@@SAHABH@Z 0040aa90 f i JetShooter.obj
 0001:00009af0       ?open@?$basic_filebuf@DU?$char_traits@D@std@@@std@@QAEPAV12@PBDHH@Z 0040aaf0 f i JetShooter.obj
 0001:00009be0       ?overflow@?$basic_filebuf@DU?$char_traits@D@std@@@std@@MAEHH@Z 0040abe0 f i JetShooter.obj
 0001:0000a030       ?overflow@?$basic_stringbuf@DU?$char_traits@D@std@@V?$allocator@D@2@@std@@MAEHH@Z 0040b030 f i JetShooter.obj
 0001:0000a3e0       ?pbackfail@?$basic_filebuf@DU?$char_traits@D@std@@@std@@MAEHH@Z 0040b3e0 f i JetShooter.obj
 0001:0000a590       ?pbackfail@?$basic_stringbuf@DU?$char_traits@D@std@@V?$allocator@D@2@@std@@MAEHH@Z 0040b590 f i JetShooter.obj
 0001:0000a6c0       ?seekoff@?$basic_filebuf@DU?$char_traits@D@std@@@std@@MAE?AV?$fpos@H@2@_JHH@Z 0040b6c0 f i JetShooter.obj
 0001:0000a7e0       ?seekoff@?$basic_stringbuf@DU?$char_traits@D@std@@V?$allocator@D@2@@std@@MAE?AV?$fpos@H@2@_JHH@Z 0040b7e0 f i JetShooter.obj
 0001:0000ab50       ?seekpos@?$basic_filebuf@DU?$char_traits@D@std@@@std@@MAE?AV?$fpos@H@2@V32@H@Z 0040bb50 f i JetShooter.obj
 0001:0000ac80       ?seekpos@?$basic_stringbuf@DU?$char_traits@D@std@@V?$allocator@D@2@@std@@MAE?AV?$fpos@H@2@V32@H@Z 0040bc80 f i JetShooter.obj
 0001:0000af00       ?seekpos@?$fpos@H@std@@QBE_JXZ 0040bf00 f i JetShooter.obj
 0001:0000af30       ?setbuf@?$basic_filebuf@DU?$char_traits@D@std@@@std@@MAEPAV?$basic_streambuf@DU?$char_traits@D@std@@@2@PAD_J@Z 0040bf30 f i JetShooter.obj
 0001:0000afd0       ?size@?$basic_string@DU?$char_traits@D@std@@V?$allocator@D@2@@std@@QBEIXZ 0040bfd0 f i JetShooter.obj
 0001:0000aff0       ?state@?$fpos@H@std@@QBEHXZ 0040bff0 f i JetShooter.obj
 0001:0000b010       ?sync@?$basic_filebuf@DU?$char_traits@D@std@@@std@@MAEHXZ 0040c010 f i JetShooter.obj
 0001:0000b0b0       ?system_category@std@@YAABVerror_category@1@XZ 0040c0b0 f i JetShooter.obj
 0001:0000b0d0       ?to_char_type@?$char_traits@D@std@@SADABH@Z 0040c0d0 f i JetShooter.obj
 0001:0000b0f0       ?to_int_type@?$char_traits@D@std@@SAHABD@Z 0040c0f0 f i JetShooter.obj
 0001:0000b110       ?uflow@?$basic_filebuf@DU?$char_traits@D@std@@@std@@MAEHXZ 0040c110 f i JetShooter.obj
 0001:0000b510       ?underflow@?$basic_filebuf@DU?$char_traits@D@std@@@std@@MAEHXZ 0040c510 f i JetShooter.obj
 0001:0000b5d0       ?underflow@?$basic_stringbuf@DU?$char_traits@D@std@@V?$allocator@D@2@@std@@MAEHXZ 0040c5d0 f i JetShooter.obj
 0001:0000b720       ?value@error_code@std@@QBEHXZ 0040c720 f i JetShooter.obj
 0001:0000b740       ?value@error_condition@std@@QBEHXZ 0040c740 f i JetShooter.obj
 0001:0000b760       _hypot                     0040c760 f i JetShooter.obj
 0001:0000b7a0       ??0EnemyJet@@QAE@PAVBaseEngine@@@Z 0040c7a0 f   EnemyJet.obj
 0001:0000b8f0       ??1EnemyJet@@UAE@XZ        0040c8f0 f   EnemyJet.obj
 0001:0000b920       ??_GEnemyJet@@UAEPAXI@Z    0040c920 f i EnemyJet.obj
 0001:0000b920       ??_EEnemyJet@@UAEPAXI@Z    0040c920 f i EnemyJet.obj
 0001:0000b970       ?DoUpdate@EnemyJet@@UAEXH@Z 0040c970 f   EnemyJet.obj
 0001:0000ba00       ?Draw@EnemyJet@@UAEXXZ     0040ca00 f   EnemyJet.obj
 0001:0000ba90       ?GetColourPixel@EnemyJet@@QAEIHH@Z 0040ca90 f   EnemyJet.obj
 0001:0000bb40       ??0Jet@@QAE@PAVBaseEngine@@@Z 0040cb40 f   Jet.obj
 0001:0000bca0       ??1Jet@@UAE@XZ             0040cca0 f   Jet.obj
 0001:0000bcd0       ??_EJet@@UAEPAXI@Z         0040ccd0 f i Jet.obj
 0001:0000bcd0       ??_GJet@@UAEPAXI@Z         0040ccd0 f i Jet.obj
 0001:0000bd20       ?ChangeJet@Jet@@QAEXHHH_N@Z 0040cd20 f   Jet.obj
 0001:0000bee0       ?DoUpdate@Jet@@UAEXH@Z     0040cee0 f   Jet.obj
 0001:0000c280       ?Draw@Jet@@UAEXXZ          0040d280 f   Jet.obj
 0001:0000c310       ?GetBackground@BaseEngine@@QAEPAUSDL_Surface@@XZ 0040d310 f i Jet.obj
 0001:0000c330       ?GetColourPixel@Jet@@QAEIHH@Z 0040d330 f   Jet.obj
 0001:0000c3e0       ??0LargeEnemyJet@@QAE@PAVBaseEngine@@@Z 0040d3e0 f   LargeEnemyJet.obj
 0001:0000c530       ??1LargeEnemyJet@@UAE@XZ   0040d530 f   LargeEnemyJet.obj
 0001:0000c560       ??_GLargeEnemyJet@@UAEPAXI@Z 0040d560 f i LargeEnemyJet.obj
 0001:0000c560       ??_ELargeEnemyJet@@UAEPAXI@Z 0040d560 f i LargeEnemyJet.obj
 0001:0000c5b0       ?DoUpdate@LargeEnemyJet@@UAEXH@Z 0040d5b0 f   LargeEnemyJet.obj
 0001:0000c640       ?Draw@LargeEnemyJet@@UAEXXZ 0040d640 f   LargeEnemyJet.obj
 0001:0000c6d0       ?GetColourPixel@LargeEnemyJet@@QAEIHH@Z 0040d6d0 f   LargeEnemyJet.obj
 0001:0000c780       _SDL_main                  0040d780 f   mainfunction.obj
 0001:0000c860       ??$GetAngle@N@@YANNNNN@Z   0040d860 f i BaseEngine.obj
 0001:0000c920       ??$Swap@H@@YAXAAH0@Z       0040d920 f i BaseEngine.obj
 0001:0000c960       ??$Swap@N@@YAXAAN0@Z       0040d960 f i BaseEngine.obj
 0001:0000c9b0       ??0BaseEngine@@QAE@H@Z     0040d9b0 f   BaseEngine.obj
 0001:0000cb50       ??1BaseEngine@@UAE@XZ      0040db50 f   BaseEngine.obj
 0001:0000cbf0       ??_EBaseEngine@@UAEPAXI@Z  0040dbf0 f i BaseEngine.obj
 0001:0000cbf0       ??_GBaseEngine@@UAEPAXI@Z  0040dbf0 f i BaseEngine.obj
 0001:0000cc40       ?CleanUp@BaseEngine@@UAEXXZ 0040dc40 f   BaseEngine.obj
 0001:0000cc60       ?CopyAllBackgroundBuffer@BaseEngine@@QAEXXZ 0040dc60 f   BaseEngine.obj
 0001:0000cd50       ?CopyBackgroundPixels@BaseEngine@@QAEXHHHH@Z 0040dd50 f   BaseEngine.obj
 0001:0000ce40       ?Deinitialise@BaseEngine@@QAEXXZ 0040de40 f   BaseEngine.obj
 0001:0000ce90       ?DestroyOldObjects@BaseEngine@@UAEXXZ 0040de90 f   BaseEngine.obj
 0001:0000cf70       ?DrawChanges@BaseEngine@@UAEXXZ 0040df70 f   BaseEngine.obj
 0001:0000cfc0       ?DrawChangingObjects@BaseEngine@@UAEXXZ 0040dfc0 f   BaseEngine.obj
 0001:0000d050       ?DrawHollowOval@BaseEngine@@QAEXHHHHHHHHIPAUSDL_Surface@@@Z 0040e050 f   BaseEngine.obj
 0001:0000d350       ?DrawLine@BaseEngine@@QAEXNNNNIPAUSDL_Surface@@@Z 0040e350 f   BaseEngine.obj
 0001:0000d500       ?DrawOval@BaseEngine@@QAEXHHHHIPAUSDL_Surface@@@Z 0040e500 f   BaseEngine.obj
 0001:0000d6d0       ?DrawPolygon@BaseEngine@@QAEXHPAN0IPAUSDL_Surface@@@Z 0040e6d0 f   BaseEngine.obj
 0001:0000e0d0       ?DrawRectangle@BaseEngine@@QAEXHHHHIPAUSDL_Surface@@@Z 0040f0d0 f   BaseEngine.obj
 0001:0000e1a0       ?DrawScreen@BaseEngine@@UAEXXZ 0040f1a0 f   BaseEngine.obj
 0001:0000e1f0       ?DrawString@BaseEngine@@QAEXHHPBDIPAVFont@@PAUSDL_Surface@@@Z 0040f1f0 f   BaseEngine.obj
 0001:0000e380       ?DrawStrings@BaseEngine@@UAEXXZ 0040f380 f   BaseEngine.obj
 0001:0000e3a0       ?DrawThickLine@BaseEngine@@QAEXNNNNIHPAUSDL_Surface@@@Z 0040f3a0 f   BaseEngine.obj
 0001:0000e8d0       ?DrawTriangle@BaseEngine@@QAEXNNNNNNIPAUSDL_Surface@@@Z 0040f8d0 f   BaseEngine.obj
 0001:0000ebf0       ?DrawVerticalSidedRegion@BaseEngine@@QAEXNNNNNNIPAUSDL_Surface@@@Z 0040fbf0 f   BaseEngine.obj
 0001:0000ef80       ?FillBackground@BaseEngine@@UAEXI@Z 0040ff80 f   BaseEngine.obj
 0001:0000eff0       ?GameAction@BaseEngine@@UAEXXZ 0040fff0 f   BaseEngine.obj
 0001:0000f050       ?GameInit@BaseEngine@@UAEHXZ 00410050 f   BaseEngine.obj
 0001:0000f090       ?GameRender@BaseEngine@@UAEXXZ 00410090 f   BaseEngine.obj
 0001:0000f2c0       ?GetColour@BaseEngine@@QAEIH@Z 004102c0 f   BaseEngine.obj
 0001:0000f590       ?GetDisplayableObject@BaseEngine@@QAEPAVDisplayableObject@@H@Z 00410590 f   BaseEngine.obj
 0001:0000f5d0       ?GetFont@Font@@QAEPAU_TTF_Font@@XZ 004105d0 f i BaseEngine.obj
 0001:0000f5f0       ?GetNextUpdateRect@BaseEngine@@QAEPAUSDL_Rect@@XZ 004105f0 f   BaseEngine.obj
 0001:0000f660       ?GetUpdateRectanglesForChangingObjects@BaseEngine@@UAEXXZ 00410660 f   BaseEngine.obj
 0001:0000f6f0       ?Initialise@BaseEngine@@QAEHPADHH0H@Z 004106f0 f   BaseEngine.obj
 0001:0000f940       ?InitialiseObjects@BaseEngine@@UAEHXZ 00410940 f   BaseEngine.obj
 0001:0000f970       ?IsKeyPressed@BaseEngine@@QAEHH@Z 00410970 f   BaseEngine.obj
 0001:0000f9c0       ?KeyDown@BaseEngine@@UAEXH@Z 004109c0 f   BaseEngine.obj
 0001:0000f9e0       ?KeyUp@BaseEngine@@UAEXH@Z 004109e0 f   BaseEngine.obj
 0001:0000fa00       ?MainLoop@BaseEngine@@QAEHXZ 00410a00 f   BaseEngine.obj
 0001:0000fc50       ?MouseDown@BaseEngine@@UAEXHHH@Z 00410c50 f   BaseEngine.obj
 0001:0000fc70       ?MouseMoved@BaseEngine@@UAEXHH@Z 00410c70 f   BaseEngine.obj
 0001:0000fc90       ?MouseUp@BaseEngine@@UAEXHHH@Z 00410c90 f   BaseEngine.obj
 0001:0000fcb0       ?SafeSetPixel@BaseEngine@@QAEXHHIPAUSDL_Surface@@@Z 00410cb0 f i BaseEngine.obj
 0001:0000fd30       ?SetupBackgroundBuffer@BaseEngine@@UAEXXZ 00410d30 f   BaseEngine.obj
 0001:0000fd60       ?UndrawChangingObjects@BaseEngine@@QAEXXZ 00410d60 f   BaseEngine.obj
 0001:0000fdf0       ?UpdateAllObjects@BaseEngine@@UAEXH@Z 00410df0 f   BaseEngine.obj
 0001:0000fe90       ??0DisplayableObject@@QAE@PAVBaseEngine@@@Z 00410e90 f   DisplayableObject.obj
 0001:0000ff30       ??1DisplayableObject@@UAE@XZ 00410f30 f   DisplayableObject.obj
 0001:0000ff60       ??_GDisplayableObject@@UAEPAXI@Z 00410f60 f i DisplayableObject.obj
 0001:0000ff60       ??_EDisplayableObject@@UAEPAXI@Z 00410f60 f i DisplayableObject.obj
 0001:0000ffb0       ?DoUpdate@DisplayableObject@@UAEXH@Z 00410fb0 f   DisplayableObject.obj
 0001:0000ffd0       ?Draw@DisplayableObject@@UAEXXZ 00410fd0 f   DisplayableObject.obj
 0001:00010090       ?GetRedrawRect@DisplayableObject@@UAEXPAUSDL_Rect@@@Z 00411090 f   DisplayableObject.obj
 0001:000100f0       ?RedrawBackground@DisplayableObject@@UAEXXZ 004110f0 f   DisplayableObject.obj
 0001:00010150       ?SafeSetScreenPixel@BaseEngine@@QAEXHHI@Z 00411150 f i DisplayableObject.obj
 0001:00010190       ?StoreLastScreenPositionAndUpdateRect@DisplayableObject@@QAEXXZ 00411190 f   DisplayableObject.obj
 0001:00010300       ??$GrowArray@PAVFont@@@@YAPAPAVFont@@PAPAV0@AAHH@Z 00411300 f i FontManager.obj
 0001:000103c0       ??0Font@@QAE@PAU_TTF_Font@@PADH@Z 004113c0 f i FontManager.obj
 0001:00010440       ??0FontManager@@QAE@XZ     00411440 f   FontManager.obj
 0001:000104d0       ??1Font@@QAE@XZ            004114d0 f i FontManager.obj
 0001:00010550       ??1FontManager@@QAE@XZ     00411550 f   FontManager.obj
 0001:000105f0       ??_GFont@@QAEPAXI@Z        004115f0 f i FontManager.obj
 0001:00010640       ?GetFont@FontManager@@QAEPAVFont@@PADH@Z 00411640 f   FontManager.obj
 0001:000108c0       ?LoadFonts@FontManager@@QAEXXZ 004118c0 f   FontManager.obj
 0001:00010950       ?DeinitImage@@YAXXZ        00411950 f   JPGImage.obj
 0001:00010970       ?GetXForRotationAndCrop@@YAHHHHHHH@Z 00411970 f i JPGImage.obj
 0001:000109f0       ?GetYForRotationAndCrop@@YAHHHHHHH@Z 004119f0 f i JPGImage.obj
 0001:00010a70       ?InitImage@@YAXXZ          00411a70 f   JPGImage.obj
 0001:00010a90       ?LoadImage@ImageData@@QAE_NPAD@Z 00411a90 f   JPGImage.obj
 0001:00010e00       ?LoadImage@ImageSurface@@QAE_NPAD@Z 00411e00 f   JPGImage.obj
 0001:00010e60       ?RenderImage@ImageData@@QAEXPAUSDL_Surface@@HHHHHH@Z 00411e60 f   JPGImage.obj
 0001:00010fe0       ?RenderImage@ImageSurface@@QAEXPAUSDL_Surface@@HHHHHH@Z 00411fe0 f   JPGImage.obj
 0001:00011070       ?RenderImageWithMask@ImageData@@QAEXPAUSDL_Surface@@HHHHHH@Z 00412070 f   JPGImage.obj
 0001:00011240       ?ResizeTo@ImageData@@QAEXPAV1@HH_N@Z 00412240 f   JPGImage.obj
 0001:00011740       ?ShrinkFrom@ImageData@@QAEXPAV1@H@Z 00412740 f   JPGImage.obj
 0001:000119b0       ??0missile@@QAE@PAVBaseEngine@@@Z 004129b0 f   missile.obj
 0001:00011ad0       ??1missile@@UAE@XZ         00412ad0 f   missile.obj
 0001:00011b00       ??_Gmissile@@UAEPAXI@Z     00412b00 f i missile.obj
 0001:00011b00       ??_Emissile@@UAEPAXI@Z     00412b00 f i missile.obj
 0001:00011b50       ?DoUpdate@missile@@UAEXH@Z 00412b50 f   missile.obj
 0001:00011e10       ?Draw@missile@@UAEXXZ      00412e10 f   missile.obj
 0001:00012120       ?FindPlayer@missile@@QAEXHH@Z 00413120 f   missile.obj
 0001:00012150       ?Shoot@missile@@QAEXHH@Z   00413150 f   missile.obj
 0001:000121a0       ??0Shield@@QAE@PAVBaseEngine@@@Z 004131a0 f   Shield.obj
 0001:000122c0       ??1Shield@@UAE@XZ          004132c0 f   Shield.obj
 0001:000122f0       ??_GShield@@UAEPAXI@Z      004132f0 f i Shield.obj
 0001:000122f0       ??_EShield@@UAEPAXI@Z      004132f0 f i Shield.obj
 0001:00012340       ?DoUpdate@Shield@@UAEXH@Z  00413340 f   Shield.obj
 0001:00012370       ?Draw@Shield@@UAEXXZ       00413370 f   Shield.obj
 0001:00012400       ?RedrawObjects@DisplayableObject@@QAEXXZ 00413400 f i Shield.obj
 0001:00012430       ?ShieldUp@Shield@@QAEXHH@Z 00413430 f   Shield.obj
 0001:00012480       ??0ImageData@@QAE@XZ       00413480 f i Sky.obj
 0001:000124c0       ??0Sky@@QAE@PAVBaseEngine@@H@Z 004134c0 f   Sky.obj
 0001:00012600       ??1Sky@@UAE@XZ             00413600 f   Sky.obj
 0001:00012630       ??_ESky@@UAEPAXI@Z         00413630 f i Sky.obj
 0001:00012630       ??_GSky@@UAEPAXI@Z         00413630 f i Sky.obj
 0001:00012680       ?DoUpdate@Sky@@UAEXH@Z     00413680 f   Sky.obj
 0001:000126f0       ?Draw@Sky@@UAEXXZ          004136f0 f   Sky.obj
 0001:00012770       ?GetHeight@ImageData@@QAEHXZ 00413770 f i Sky.obj
 0001:00012790       ?GetWidth@ImageData@@QAEHXZ 00413790 f i Sky.obj
 0001:000127b0       ?DrawAllTilesAt@TileManager@@QAEXPAVBaseEngine@@PAUSDL_Surface@@HHHHHH@Z 004137b0 f   TileManager.obj
 0001:00012880       ?DrawTileAt@TileManager@@UAEXPAVBaseEngine@@PAUSDL_Surface@@HHHH@Z 00413880 f   TileManager.obj
 0001:00012930       ?GetTileHeight@TileManager@@UAEHXZ 00413930 f   TileManager.obj
 0001:00012950       ?GetTileWidth@TileManager@@UAEHXZ 00413950 f   TileManager.obj
 0001:00012970       ?GetValue@TileManager@@QAEHHH@Z 00413970 f i TileManager.obj
 0001:000129b0       ?SetValue@TileManager@@QAEXHHH@Z 004139b0 f i TileManager.obj
 0001:000129f0       ?UpdateTileAt@TileManager@@QAEXPAVBaseEngine@@HHHHH@Z 004139f0 f   TileManager.obj
 0001:00012ae8       _SDL_FreeSurface           00413ae8 f   sdl:SDL.dll
 0001:00012aee       _SDL_GetError              00413aee f   sdl:SDL.dll
 0001:00012af4       _SDL_SetVideoMode          00413af4 f   sdl:SDL.dll
 0001:00012afa       _SDL_UpdateRects           00413afa f   sdl:SDL.dll
 0001:00012b00       _SDL_UpdateRect            00413b00 f   sdl:SDL.dll
 0001:00012b06       _SDL_CreateRGBSurface      00413b06 f   sdl:SDL.dll
 0001:00012b0c       _SDL_LockSurface           00413b0c f   sdl:SDL.dll
 0001:00012b12       _SDL_UnlockSurface         00413b12 f   sdl:SDL.dll
 0001:00012b18       _SDL_UpperBlit             00413b18 f   sdl:SDL.dll
 0001:00012b1e       _SDL_FillRect              00413b1e f   sdl:SDL.dll
 0001:00012b24       _SDL_WM_SetCaption         00413b24 f   sdl:SDL.dll
 0001:00012b2a       _SDL_PollEvent             00413b2a f   sdl:SDL.dll
 0001:00012b30       _SDL_GetTicks              00413b30 f   sdl:SDL.dll
 0001:00012b36       _SDL_Init                  00413b36 f   sdl:SDL.dll
 0001:00012b3c       _SDL_Quit                  00413b3c f   sdl:SDL.dll
 0001:00012b42       _SDL_GetWMInfo             00413b42 f   sdl:SDL.dll
 0001:00012b48       _TTF_Init                  00413b48 f   SDL_ttf:SDL_ttf.dll
 0001:00012b4e       _TTF_RenderText_Blended    00413b4e f   SDL_ttf:SDL_ttf.dll
 0001:00012b54       _TTF_Quit                  00413b54 f   SDL_ttf:SDL_ttf.dll
 0001:00012b5a       _TTF_OpenFont              00413b5a f   SDL_ttf:SDL_ttf.dll
 0001:00012b60       _TTF_CloseFont             00413b60 f   SDL_ttf:SDL_ttf.dll
 0001:00012b66       _IMG_Load                  00413b66 f   SDL_image:SDL_image.dll
 0001:00012b6c       _SetWindowPos@28           00413b6c f   user32:USER32.dll
 0001:00012c76       _NtCurrentTeb              00413c76 f i MSVCRT:crtexe.obj
 0001:00012e28       _mainCRTStartup            00413e28 f   MSVCRT:crtexe.obj
 0001:00012e32       ??2@YAPAXI@Z               00413e32 f   MSVCRT:MSVCR120.dll
 0001:00012e38       ??3@YAXPAX@Z               00413e38 f   MSVCRT:MSVCR120.dll
 0001:00012e3e       @__security_check_cookie@4 00413e3e f   MSVCRT:secchk.obj
 0001:00012e4e       ___CxxFrameHandler3        00413e4e f   MSVCRT:MSVCR120.dll
 0001:00012e54       ??0type_info@@AAE@ABV0@@Z  00413e54 f   MSVCRT:ti_inst.obj
 0001:00012e5f       ??4type_info@@AAEAAV0@ABV0@@Z 00413e5f f   MSVCRT:ti_inst.obj
 0001:00012e64       ??_Etype_info@@UAEPAXI@Z   00413e64 f i MSVCRT:ti_inst.obj
 0001:00012eae       _rand                      00413eae f   MSVCRT:MSVCR120.dll
 0001:00012eb4       __purecall                 00413eb4 f   MSVCRT:MSVCR120.dll
 0001:00012eba       ___atonexitinit            00413eba f   MSVCRT:atonexit.obj
 0001:00012ef6       __onexit                   00413ef6 f   MSVCRT:atonexit.obj
 0001:00012f9f       _atexit                    00413f9f f   MSVCRT:atonexit.obj
 0001:00012fb4       _fclose                    00413fb4 f   MSVCRT:MSVCR120.dll
 0001:00012fba       _fflush                    00413fba f   MSVCRT:MSVCR120.dll
 0001:00012fc0       _fgetc                     00413fc0 f   MSVCRT:MSVCR120.dll
 0001:00012fc6       _fgetpos                   00413fc6 f   MSVCRT:MSVCR120.dll
 0001:00012fcc       _fputc                     00413fcc f   MSVCRT:MSVCR120.dll
 0001:00012fd2       _fsetpos                   00413fd2 f   MSVCRT:MSVCR120.dll
 0001:00012fd8       __fseeki64                 00413fd8 f   MSVCRT:MSVCR120.dll
 0001:00012fde       _fwrite                    00413fde f   MSVCRT:MSVCR120.dll
 0001:00012fe4       _setvbuf                   00413fe4 f   MSVCRT:MSVCR120.dll
 0001:00012fea       _ungetc                    00413fea f   MSVCRT:MSVCR120.dll
 0001:00012ff0       _sprintf                   00413ff0 f   MSVCRT:MSVCR120.dll
 0001:00012ff6       __lock_file                00413ff6 f   MSVCRT:MSVCR120.dll
 0001:00012ffc       __unlock_file              00413ffc f   MSVCRT:MSVCR120.dll
 0001:00013002       _memcpy                    00414002 f   MSVCRT:MSVCR120.dll
 0001:00013008       _memcpy_s                  00414008 f   MSVCRT:MSVCR120.dll
 0001:0001300e       _memset                    0041400e f   MSVCRT:MSVCR120.dll
 0001:00013014       _strlen                    00414014 f   MSVCRT:MSVCR120.dll
 0001:0001301a       _memmove                   0041401a f   MSVCRT:MSVCR120.dll
 0001:00013020       __hypot                    00414020 f   MSVCRT:MSVCR120.dll
 0001:00013026       ??_U@YAPAXI@Z              00414026 f   MSVCRT:MSVCR120.dll
 0001:0001302c       ??0bad_cast@std@@QAE@PBD@Z 0041402c f   MSVCRT:MSVCR120.dll
 0001:00013032       ??0bad_cast@std@@QAE@ABV01@@Z 00414032 f   MSVCRT:MSVCR120.dll
 0001:00013038       ??0exception@std@@QAE@ABV01@@Z 00414038 f   MSVCRT:MSVCR120.dll
 0001:0001303e       ??1bad_cast@std@@UAE@XZ    0041403e f   MSVCRT:MSVCR120.dll
 0001:00013044       __CxxThrowException@8      00414044 f   MSVCRT:MSVCR120.dll
 0001:00013050       ___iob_func                00414050 f   MSVCRT:MSVCR120.dll
 0001:00013056       _fprintf                   00414056 f   MSVCRT:MSVCR120.dll
 0001:0001305c       _printf                    0041405c f   MSVCRT:MSVCR120.dll
 0001:00013062       _atan                      00414062 f   MSVCRT:MSVCR120.dll
 0001:00013068       _cos                       00414068 f   MSVCRT:MSVCR120.dll
 0001:0001306e       _sin                       0041406e f   MSVCRT:MSVCR120.dll
 0001:00013074       _strcpy                    00414074 f   MSVCRT:MSVCR120.dll
 0001:0001307a       _strcmp                    0041407a f   MSVCRT:MSVCR120.dll
 0001:00013080       ?__CxxUnhandledExceptionFilter@@YGJPAU_EXCEPTION_POINTERS@@@Z 00414080 f   MSVCRT:unhandld.obj
 0001:000130c1       ___CxxSetUnhandledExceptionFilter 004140c1 f   MSVCRT:unhandld.obj
 0001:000130d0       __XcptFilter               004140d0 f   MSVCRT:MSVCR120.dll
 0001:000130d6       __amsg_exit                004140d6 f   MSVCRT:MSVCR120.dll
 0001:000130dc       __setargv                  004140dc f   MSVCRT:dllargv.obj
 0001:000130e0       ___getmainargs             004140e0 f   MSVCRT:MSVCR120.dll
 0001:000130e6       ___set_app_type            004140e6 f   MSVCRT:MSVCR120.dll
 0001:000130f0       __FindPESection            004140f0 f   MSVCRT:pesect.obj
 0001:00013140       __IsNonwritableInCurrentImage 00414140 f   MSVCRT:pesect.obj
 0001:00013200       __ValidateImageBase        00414200 f   MSVCRT:pesect.obj
 0001:00013232       _exit                      00414232 f   MSVCRT:MSVCR120.dll
 0001:00013238       __exit                     00414238 f   MSVCRT:MSVCR120.dll
 0001:0001323e       __cexit                    0041423e f   MSVCRT:MSVCR120.dll
 0001:00013244       ___security_init_cookie    00414244 f   MSVCRT:gs_support.obj
 0001:000132e0       __matherr                  004142e0 f   MSVCRT:merr.obj
 0001:000132e3       __RTC_Initialize           004142e3 f   MSVCRT:initsect.obj
 0001:00013303       __RTC_Terminate            00414303 f   MSVCRT:initsect.obj
 0001:00013324       __configthreadlocale       00414324 f   MSVCRT:MSVCR120.dll
 0001:0001332a       __invoke_watson_if_error   0041432a f i MSVCRT:fp8.obj
 0001:0001334a       __setdefaultprecision      0041434a f   MSVCRT:fp8.obj
 0001:00013372       ___setusermatherr          00414372 f   MSVCRT:MSVCR120.dll
 0001:00013378       __initterm_e               00414378 f   MSVCRT:MSVCR120.dll
 0001:0001337e       __initterm                 0041437e f   MSVCRT:MSVCR120.dll
 0001:00013390       __SEH_prolog4              00414390 f   MSVCRT:sehprolg4.obj
 0001:000133d5       __SEH_epilog4              004143d5 f   MSVCRT:sehprolg4.obj
 0001:000133e9       __except_handler4          004143e9 f   MSVCRT:chandler4gs.obj
 0001:0001340c       ___raise_securityfailure   0041440c f   MSVCRT:gs_report.obj
 0001:00013449       ___report_gsfailure        00414449 f   MSVCRT:gs_report.obj
 0001:00013544       ___report_rangecheckfailure 00414544 f   MSVCRT:gs_report.obj
 0001:00013550       ___report_securityfailure  00414550 f   MSVCRT:gs_report.obj
 0001:00013620       ___report_securityfailureEx 00414620 f   MSVCRT:gs_report.obj
 0001:00013736       ??_M@YGXPAXIHP6EX0@Z@Z     00414736 f   MSVCRT:ehvecdtr.obj
 0001:000137be       ?__ArrayUnwind@@YGXPAXIHP6EX0@Z@Z 004147be f   MSVCRT:ehvecdtr.obj
 0001:0001381c       ??1type_info@@UAE@XZ       0041481c f   MSVCRT:MSVCR120.dll
 0001:00013822       __lock                     00414822 f   MSVCRT:MSVCR120.dll
 0001:00013828       __unlock                   00414828 f   MSVCRT:MSVCR120.dll
 0001:0001382e       __calloc_crt               0041482e f   MSVCRT:MSVCR120.dll
 0001:00013834       ___dllonexit               00414834 f   MSVCRT:MSVCR120.dll
 0001:0001383a       ?terminate@@YAXXZ          0041483a f   MSVCRT:MSVCR120.dll
 0001:00013840       ___crtSetUnhandledExceptionFilter 00414840 f   MSVCRT:MSVCR120.dll
 0001:00013846       __invoke_watson            00414846 f   MSVCRT:MSVCR120.dll
 0001:0001384c       __controlfp_s              0041484c f   MSVCRT:MSVCR120.dll
 0001:00013852       __except_handler4_common   00414852 f   MSVCRT:MSVCR120.dll
 0001:00013858       __crt_debugger_hook        00414858 f   MSVCRT:MSVCR120.dll
 0001:0001385e       ___crtUnhandledException   0041485e f   MSVCRT:MSVCR120.dll
 0001:00013864       ___crtTerminateProcess     00414864 f   MSVCRT:MSVCR120.dll
 0001:0001386a       ??0_Lockit@std@@QAE@H@Z    0041486a f   msvcprt:MSVCP120.dll
 0001:00013870       ??1_Lockit@std@@QAE@XZ     00414870 f   msvcprt:MSVCP120.dll
 0001:00013876       ?uncaught_exception@std@@YA_NXZ 00414876 f   msvcprt:MSVCP120.dll
 0001:0001387c       ?_Xbad_alloc@std@@YAXXZ    0041487c f   msvcprt:MSVCP120.dll
 0001:00013882       ?_Xlength_error@std@@YAXPBD@Z 00414882 f   msvcprt:MSVCP120.dll
 0001:00013888       ?_Xout_of_range@std@@YAXPBD@Z 00414888 f   msvcprt:MSVCP120.dll
 0001:0001388e       ??0_Fac_node@std@@QAE@PAU01@PAV_Facet_base@1@@Z 0041488e f i msvcprt:locale0_implib.obj
 0001:000138a2       ??1_Fac_node@std@@QAE@XZ   004148a2 f i msvcprt:locale0_implib.obj
 0001:000138b7       ??1_Fac_tidy_reg_t@std@@QAE@XZ 004148b7 f i msvcprt:locale0_implib.obj
 0001:000138db       ??_G_Fac_node@std@@QAEPAXI@Z 004148db f i msvcprt:locale0_implib.obj
 0001:000138fa       ?_Facet_Register@std@@YAXPAV_Facet_base@1@@Z 004148fa f   msvcprt:locale0_implib.obj
 0001:00013922       ??0id@locale@std@@QAE@I@Z  00414922 f   msvcprt:MSVCP120.dll
 0001:00013928       ??Bid@locale@std@@QAEIXZ   00414928 f   msvcprt:MSVCP120.dll
 0001:0001392e       ?_Getgloballocale@locale@std@@CAPAV_Locimp@12@XZ 0041492e f   msvcprt:MSVCP120.dll
 0001:00013934       ?always_noconv@codecvt_base@std@@QBE_NXZ 00414934 f   msvcprt:MSVCP120.dll
 0001:0001393a       ?in@?$codecvt@DDH@std@@QBEHAAHPBD1AAPBDPAD3AAPAD@Z 0041493a f   msvcprt:MSVCP120.dll
 0001:00013940       ?out@?$codecvt@DDH@std@@QBEHAAHPBD1AAPBDPAD3AAPAD@Z 00414940 f   msvcprt:MSVCP120.dll
 0001:00013946       ?unshift@?$codecvt@DDH@std@@QBEHAAHPAD1AAPAD@Z 00414946 f   msvcprt:MSVCP120.dll
 0001:0001394c       ?_Getcat@?$codecvt@DDH@std@@SAIPAPBVfacet@locale@2@PBV42@@Z 0041494c f   msvcprt:MSVCP120.dll
 0001:00013952       ?_Syserror_map@std@@YAPBDH@Z 00414952 f   msvcprt:MSVCP120.dll
 0001:00013958       ?_Winerror_map@std@@YAPBDH@Z 00414958 f   msvcprt:MSVCP120.dll
 0001:0001395e       ??Bios_base@std@@QBE_NXZ   0041495e f   msvcprt:MSVCP120.dll
 0001:00013964       ?good@ios_base@std@@QBE_NXZ 00414964 f   msvcprt:MSVCP120.dll
 0001:0001396a       ?flags@ios_base@std@@QBEHXZ 0041496a f   msvcprt:MSVCP120.dll
 0001:00013970       ?width@ios_base@std@@QBE_JXZ 00414970 f   msvcprt:MSVCP120.dll
 0001:00013976       ?width@ios_base@std@@QAE_J_J@Z 00414976 f   msvcprt:MSVCP120.dll
 0001:0001397c       ??0?$basic_streambuf@DU?$char_traits@D@std@@@std@@IAE@XZ 0041497c f   msvcprt:MSVCP120.dll
 0001:00013982       ??1?$basic_streambuf@DU?$char_traits@D@std@@@std@@UAE@XZ 00414982 f   msvcprt:MSVCP120.dll
 0001:00013988       ?getloc@?$basic_streambuf@DU?$char_traits@D@std@@@std@@QBE?AVlocale@2@XZ 00414988 f   msvcprt:MSVCP120.dll
 0001:0001398e       ?sbumpc@?$basic_streambuf@DU?$char_traits@D@std@@@std@@QAEHXZ 0041498e f   msvcprt:MSVCP120.dll
 0001:00013994       ?sgetc@?$basic_streambuf@DU?$char_traits@D@std@@@std@@QAEHXZ 00414994 f   msvcprt:MSVCP120.dll
 0001:0001399a       ?snextc@?$basic_streambuf@DU?$char_traits@D@std@@@std@@QAEHXZ 0041499a f   msvcprt:MSVCP120.dll
 0001:000139a0       ?sputc@?$basic_streambuf@DU?$char_traits@D@std@@@std@@QAEHD@Z 004149a0 f   msvcprt:MSVCP120.dll
 0001:000139a6       ?sputn@?$basic_streambuf@DU?$char_traits@D@std@@@std@@QAE_JPBD_J@Z 004149a6 f   msvcprt:MSVCP120.dll
 0001:000139ac       ?eback@?$basic_streambuf@DU?$char_traits@D@std@@@std@@IBEPADXZ 004149ac f   msvcprt:MSVCP120.dll
 0001:000139b2       ?gptr@?$basic_streambuf@DU?$char_traits@D@std@@@std@@IBEPADXZ 004149b2 f   msvcprt:MSVCP120.dll
 0001:000139b8       ?pbase@?$basic_streambuf@DU?$char_traits@D@std@@@std@@IBEPADXZ 004149b8 f   msvcprt:MSVCP120.dll
 0001:000139be       ?pptr@?$basic_streambuf@DU?$char_traits@D@std@@@std@@IBEPADXZ 004149be f   msvcprt:MSVCP120.dll
 0001:000139c4       ?egptr@?$basic_streambuf@DU?$char_traits@D@std@@@std@@IBEPADXZ 004149c4 f   msvcprt:MSVCP120.dll
 0001:000139ca       ?gbump@?$basic_streambuf@DU?$char_traits@D@std@@@std@@IAEXH@Z 004149ca f   msvcprt:MSVCP120.dll
 0001:000139d0       ?setg@?$basic_streambuf@DU?$char_traits@D@std@@@std@@IAEXPAD00@Z 004149d0 f   msvcprt:MSVCP120.dll
 0001:000139d6       ?epptr@?$basic_streambuf@DU?$char_traits@D@std@@@std@@IBEPADXZ 004149d6 f   msvcprt:MSVCP120.dll
 0001:000139dc       ?_Gndec@?$basic_streambuf@DU?$char_traits@D@std@@@std@@IAEPADXZ 004149dc f   msvcprt:MSVCP120.dll
 0001:000139e2       ?_Gninc@?$basic_streambuf@DU?$char_traits@D@std@@@std@@IAEPADXZ 004149e2 f   msvcprt:MSVCP120.dll
 0001:000139e8       ?pbump@?$basic_streambuf@DU?$char_traits@D@std@@@std@@IAEXH@Z 004149e8 f   msvcprt:MSVCP120.dll
 0001:000139ee       ?setp@?$basic_streambuf@DU?$char_traits@D@std@@@std@@IAEXPAD0@Z 004149ee f   msvcprt:MSVCP120.dll
 0001:000139f4       ?setp@?$basic_streambuf@DU?$char_traits@D@std@@@std@@IAEXPAD00@Z 004149f4 f   msvcprt:MSVCP120.dll
 0001:000139fa       ?_Pninc@?$basic_streambuf@DU?$char_traits@D@std@@@std@@IAEPADXZ 004149fa f   msvcprt:MSVCP120.dll
 0001:00013a00       ?_Init@?$basic_streambuf@DU?$char_traits@D@std@@@std@@IAEXXZ 00414a00 f   msvcprt:MSVCP120.dll
 0001:00013a06       ?_Init@?$basic_streambuf@DU?$char_traits@D@std@@@std@@IAEXPAPAD0PAH001@Z 00414a06 f   msvcprt:MSVCP120.dll
 0001:00013a0c       ??1?$basic_ios@DU?$char_traits@D@std@@@std@@UAE@XZ 00414a0c f   msvcprt:MSVCP120.dll
 0001:00013a12       ?setstate@?$basic_ios@DU?$char_traits@D@std@@@std@@QAEXH_N@Z 00414a12 f   msvcprt:MSVCP120.dll
 0001:00013a18       ?tie@?$basic_ios@DU?$char_traits@D@std@@@std@@QBEPAV?$basic_ostream@DU?$char_traits@D@std@@@2@XZ 00414a18 f   msvcprt:MSVCP120.dll
 0001:00013a1e       ?rdbuf@?$basic_ios@DU?$char_traits@D@std@@@std@@QBEPAV?$basic_streambuf@DU?$char_traits@D@std@@@2@XZ 00414a1e f   msvcprt:MSVCP120.dll
 0001:00013a24       ?fill@?$basic_ios@DU?$char_traits@D@std@@@std@@QBEDXZ 00414a24 f   msvcprt:MSVCP120.dll
 0001:00013a2a       ?widen@?$basic_ios@DU?$char_traits@D@std@@@std@@QBEDD@Z 00414a2a f   msvcprt:MSVCP120.dll
 0001:00013a30       ??0?$basic_ios@DU?$char_traits@D@std@@@std@@IAE@XZ 00414a30 f   msvcprt:MSVCP120.dll
 0001:00013a36       ??0?$basic_ostream@DU?$char_traits@D@std@@@std@@QAE@PAV?$basic_streambuf@DU?$char_traits@D@std@@@1@_N@Z 00414a36 f   msvcprt:MSVCP120.dll
 0001:00013a3c       ??1?$basic_ostream@DU?$char_traits@D@std@@@std@@UAE@XZ 00414a3c f   msvcprt:MSVCP120.dll
 0001:00013a42       ?_Osfx@?$basic_ostream@DU?$char_traits@D@std@@@std@@QAEXXZ 00414a42 f   msvcprt:MSVCP120.dll
 0001:00013a48       ??6?$basic_ostream@DU?$char_traits@D@std@@@std@@QAEAAV01@H@Z 00414a48 f   msvcprt:MSVCP120.dll
 0001:00013a4e       ?flush@?$basic_ostream@DU?$char_traits@D@std@@@std@@QAEAAV12@XZ 00414a4e f   msvcprt:MSVCP120.dll
 0001:00013a54       ??0?$basic_istream@DU?$char_traits@D@std@@@std@@QAE@PAV?$basic_streambuf@DU?$char_traits@D@std@@@1@_N@Z 00414a54 f   msvcprt:MSVCP120.dll
 0001:00013a5a       ??1?$basic_istream@DU?$char_traits@D@std@@@std@@UAE@XZ 00414a5a f   msvcprt:MSVCP120.dll
 0001:00013a60       ?_Ipfx@?$basic_istream@DU?$char_traits@D@std@@@std@@QAE_N_N@Z 00414a60 f   msvcprt:MSVCP120.dll
 0001:00013a66       ??5?$basic_istream@DU?$char_traits@D@std@@@std@@QAEAAV01@AAH@Z 00414a66 f   msvcprt:MSVCP120.dll
 0001:00013a6c       ??0?$basic_iostream@DU?$char_traits@D@std@@@std@@QAE@PAV?$basic_streambuf@DU?$char_traits@D@std@@@1@@Z 00414a6c f   msvcprt:MSVCP120.dll
 0001:00013a72       ??1?$basic_iostream@DU?$char_traits@D@std@@@std@@UAE@XZ 00414a72 f   msvcprt:MSVCP120.dll
 0001:00013a78       ?_Fiopen@std@@YAPAU_iobuf@@PBDHH@Z 00414a78 f   msvcprt:MSVCP120.dll
 0001:00013a7e       ?_Lock@?$basic_streambuf@DU?$char_traits@D@std@@@std@@UAEXXZ 00414a7e f   msvcprt:MSVCP120.dll
 0001:00013a84       ?_Unlock@?$basic_streambuf@DU?$char_traits@D@std@@@std@@UAEXXZ 00414a84 f   msvcprt:MSVCP120.dll
 0001:00013a8a       ?imbue@?$basic_streambuf@DU?$char_traits@D@std@@@std@@MAEXABVlocale@2@@Z 00414a8a f   msvcprt:MSVCP120.dll
 0001:00013a90       ?setbuf@?$basic_streambuf@DU?$char_traits@D@std@@@std@@MAEPAV12@PAD_J@Z 00414a90 f   msvcprt:MSVCP120.dll
 0001:00013a96       ?showmanyc@?$basic_streambuf@DU?$char_traits@D@std@@@std@@MAE_JXZ 00414a96 f   msvcprt:MSVCP120.dll
 0001:00013a9c       ?sync@?$basic_streambuf@DU?$char_traits@D@std@@@std@@MAEHXZ 00414a9c f   msvcprt:MSVCP120.dll
 0001:00013aa2       ?uflow@?$basic_streambuf@DU?$char_traits@D@std@@@std@@MAEHXZ 00414aa2 f   msvcprt:MSVCP120.dll
 0001:00013aa8       ?xsgetn@?$basic_streambuf@DU?$char_traits@D@std@@@std@@MAE_JPAD_J@Z 00414aa8 f   msvcprt:MSVCP120.dll
 0001:00013aae       ?xsputn@?$basic_streambuf@DU?$char_traits@D@std@@@std@@MAE_JPBD_J@Z 00414aae f   msvcprt:MSVCP120.dll
 0001:00013ab4       _EncodePointer@4           00414ab4 f   kernel32:KERNEL32.dll
 0001:00013aba       _DecodePointer@4           00414aba f   kernel32:KERNEL32.dll
 0001:00013ac0       _QueryPerformanceCounter@4 00414ac0 f   kernel32:KERNEL32.dll
 0001:00013ac6       _GetCurrentProcessId@0     00414ac6 f   kernel32:KERNEL32.dll
 0001:00013acc       _GetCurrentThreadId@0      00414acc f   kernel32:KERNEL32.dll
 0001:00013ad2       _GetSystemTimeAsFileTime@4 00414ad2 f   kernel32:KERNEL32.dll
 0001:00013ad8       _IsDebuggerPresent@0       00414ad8 f   kernel32:KERNEL32.dll
 0001:00013ade       _IsProcessorFeaturePresent@4 00414ade f   kernel32:KERNEL32.dll
 0001:00013ae4       _GetModuleHandleA@4        00414ae4 f   kernel32:KERNEL32.dll
 0001:00013aea       _GetCommandLineA@0         00414aea f   kernel32:KERNEL32.dll
 0001:00013af0       _FreeLibrary@4             00414af0 f   kernel32:KERNEL32.dll
 0001:00013af6       _LoadLibraryA@4            00414af6 f   kernel32:KERNEL32.dll
 0001:00013afc       _isspace                   00414afc f   MSVCRT:MSVCR120.dll
 0001:00013b02       _strrchr                   00414b02 f   MSVCRT:MSVCR120.dll
 0001:00013b10       __alloca_probe_16          00414b10 f   MSVCRT:alloca16.obj
 0001:00013b26       __alloca_probe_8           00414b26     MSVCRT:alloca16.obj
 0001:00013b40       __chkstk                   00414b40 f   MSVCRT:chkstk.obj
 0001:00013b40       __alloca_probe             00414b40 f   MSVCRT:chkstk.obj
 0001:00013b6c       _SDL_SetModuleHandle       00414b6c f   sdl:SDL.dll
 0001:00013b72       _SDL_strlcpy               00414b72 f   sdl:SDL.dll
 0002:00000000       ___xc_a                    00419000     MSVCRT:cinitexe.obj
 0002:00000434       ___xc_z                    00419434     MSVCRT:cinitexe.obj
 0002:00000538       ___xi_a                    00419538     MSVCRT:cinitexe.obj
 0002:00000948       ___xi_z                    00419948     MSVCRT:cinitexe.obj
 0002:00000a8c       ??_7Bullet@@6B@            00419a8c     Bullet.obj
 0002:00000aa4       ??_C@_0L@IFLFOOFE@bullet?4png?$AA@ 00419aa4     Bullet.obj
 0002:00000ab8       ??_7EnemyBullet@@6B@       00419ab8     EnemyBullet.obj
 0002:00000ad0       ??_C@_0N@DDPJMPGB@enbullet?4png?$AA@ 00419ad0     EnemyBullet.obj
 0002:00000ae4       ??_7EnemyFast@@6B@         00419ae4     EnemyFast.obj
 0002:00000afc       ??_C@_0L@PKAFGHBB@enemyF?4png?$AA@ 00419afc     EnemyFast.obj
 0002:00000b10       ??_7JetShooter@@6B@        00419b10     JetShooter.obj
 0002:00000b78       ?npos@?$basic_string@DU?$char_traits@D@std@@V?$allocator@D@2@@std@@2IB 00419b78     JetShooter.obj
 0002:00000b80       ??_7error_category@std@@6B@ 00419b80     JetShooter.obj
 0002:00000ba4       ??_7_Generic_error_category@std@@6B@ 00419ba4     JetShooter.obj
 0002:00000bc4       ??_C@_07DCLBNMLN@generic?$AA@ 00419bc4     JetShooter.obj
 0002:00000bd0       ??_C@_0O@BFJCFAAK@unknown?5error?$AA@ 00419bd0     JetShooter.obj
 0002:00000be4       ??_7_Iostream_error_category@std@@6B@ 00419be4     JetShooter.obj
 0002:00000c04       ??_C@_08LLGCOLLL@iostream?$AA@ 00419c04     JetShooter.obj
 0002:00000c10       ??_C@_0BG@PADBLCHM@iostream?5stream?5error?$AA@ 00419c10     JetShooter.obj
 0002:00000c30       ??_7_System_error_category@std@@6B@ 00419c30     JetShooter.obj
 0002:00000c50       ??_C@_06FHFOAHML@system?$AA@ 00419c50     JetShooter.obj
 0002:00000c58       ??_C@_09HFAJNPOO@Score?3?5?$CFd?$AA@ 00419c58     JetShooter.obj
 0002:00000c64       ??_C@_0O@PPFGFCBC@Smart_Kid?4otf?$AA@ 00419c64     JetShooter.obj
 0002:00000c74       ??_C@_0CF@NKIBGJKO@Choose?5a?5Jet?5using?5left?1right?5ar@ 00419c74     JetShooter.obj
 0002:00000ca0       ??_C@_0BJ@ODOGAPNB@Arrows?5?9?5Controlling?5Jet?$AA@ 00419ca0     JetShooter.obj
 0002:00000cc0       ??_C@_0CO@PKBLGFMN@Left?5Shift?5?9?5Shield?5protecting?5f@ 00419cc0     JetShooter.obj
 0002:00000cf8       ??_C@_0O@OFCPFGEH@Space?5?9?5Shoot?$AA@ 00419cf8     JetShooter.obj
 0002:00000d08       ??_C@_09DAFOJCDG@P?5?9?5Pause?$AA@ 00419d08     JetShooter.obj
 0002:00000d14       ??_C@_0BO@DMCCOAJN@Press?5ENTER?5to?5start?5the?5game?$AA@ 00419d14     JetShooter.obj
 0002:00000d38       ??_C@_0BA@MEAEJNCG@Make?5My?5Day?4ttf?$AA@ 00419d38     JetShooter.obj
 0002:00000d4c       ??_C@_0BM@FOPHKFJE@Paused?4?5Press?5P?5to?5continue?$AA@ 00419d4c     JetShooter.obj
 0002:00000d70       ??_C@_0BC@JKCOAIJJ@Current?5Score?3?5?$CFd?$AA@ 00419d70     JetShooter.obj
 0002:00000d88       ??_C@_0BL@KCBMLMHB@Press?5ENTER?5to?5start?5again?$AA@ 00419d88     JetShooter.obj
 0002:00000dac       ??_7?$basic_filebuf@DU?$char_traits@D@std@@@std@@6B@ 00419dac     JetShooter.obj
 0002:00000df8       ??_7?$basic_ofstream@DU?$char_traits@D@std@@@std@@6B@ 00419df8     JetShooter.obj
 0002:00000e00       ??_8?$basic_ofstream@DU?$char_traits@D@std@@@std@@7B@ 00419e00     JetShooter.obj
 0002:00000e0c       ??_C@_0P@DFFEKPGF@highscores?4txt?$AA@ 00419e0c     JetShooter.obj
 0002:00000e20       ??_C@_0BE@EHPMKKHE@Unable?5to?5open?5file?$AA@ 00419e20     JetShooter.obj
 0002:00000e3c       ??_7?$basic_ifstream@DU?$char_traits@D@std@@@std@@6B@ 00419e3c     JetShooter.obj
 0002:00000e44       ??_8?$basic_ifstream@DU?$char_traits@D@std@@@std@@7B@ 00419e44     JetShooter.obj
 0002:00000e54       ??_7?$basic_stringbuf@DU?$char_traits@D@std@@V?$allocator@D@2@@std@@6B@ 00419e54     JetShooter.obj
 0002:00000ea0       ??_7?$basic_stringstream@DU?$char_traits@D@std@@V?$allocator@D@2@@std@@6B@ 00419ea0     JetShooter.obj
 0002:00000ea8       ??_8?$basic_stringstream@DU?$char_traits@D@std@@V?$allocator@D@2@@std@@7B?$basic_istream@DU?$char_traits@D@std@@@1@@ 00419ea8     JetShooter.obj
 0002:00000eb4       ??_8?$basic_stringstream@DU?$char_traits@D@std@@V?$allocator@D@2@@std@@7B?$basic_ostream@DU?$char_traits@D@std@@@1@@ 00419eb4     JetShooter.obj
 0002:00000ec0       ??_C@_0BC@KJIIENKO@Highest?5Score?3?5?$CFd?$AA@ 00419ec0     JetShooter.obj
 0002:00000ed8       ??_C@_0BA@JFNIOLAK@string?5too?5long?$AA@ 00419ed8     JetShooter.obj
 0002:00000eec       ??_C@_0BI@CFPLBAOH@invalid?5string?5position?$AA@ 00419eec     JetShooter.obj
 0002:00000f08       ??_C@_08EPJLHIJG@bad?5cast?$AA@ 00419f08     JetShooter.obj
 0002:00000f18       ??_7EnemyJet@@6B@          00419f18     EnemyJet.obj
 0002:00000f30       ??_C@_0L@OMCCFKGI@enemy1?4png?$AA@ 00419f30     EnemyJet.obj
 0002:00000f44       ??_7Jet@@6B@               00419f44     Jet.obj
 0002:00000f5c       ??_C@_0L@BPFFOPDF@su37kt?4png?$AA@ 00419f5c     Jet.obj
 0002:00000f6c       ??_C@_09FKMEPCFK@mig51?4png?$AA@ 00419f6c     Jet.obj
 0002:00000f78       ??_C@_08HMCOPPPL@su51?4png?$AA@ 00419f78     Jet.obj
 0002:00000f88       __real@0000000000000000    00419f88     Jet.obj
 0002:00000f98       __real@3fc999999999999a    00419f98     Jet.obj
 0002:00000fa8       __real@3fe0000000000000    00419fa8     Jet.obj
 0002:00000fb8       __real@4074a00000000000    00419fb8     Jet.obj
 0002:00000fc8       __real@4079000000000000    00419fc8     Jet.obj
 0002:00000fd8       ??_7LargeEnemyJet@@6B@     00419fd8     LargeEnemyJet.obj
 0002:00000ff0       ??_C@_0P@FGJKGLOA@largeEnemy?4png?$AA@ 00419ff0     LargeEnemyJet.obj
 0002:00001004       ??_C@_0CA@LCKFOJPF@Dangerous?5Flight?5?3?5Size?5?$CFd?5x?5?$CFd?$AA@ 0041a004     mainfunction.obj
 0002:0000102c       ??_C@_0BA@LLOOHAKH@Make?5my?5day?4ttf?$AA@ 0041a02c     mainfunction.obj
 0002:00001044       ??_7BaseEngine@@6B@        0041a044     BaseEngine.obj
 0002:000010ac       ??_C@_0BI@FBLGJKMC@Unable?5to?5init?5SDL?3?5?$CFs?6?$AA@ 0041a0ac     BaseEngine.obj
 0002:000010c8       ??_C@_0BM@KCLNHPJ@Unable?5to?5set?5up?5video?3?5?$CFs?6?$AA@ 0041a0c8     BaseEngine.obj
 0002:000010ec       ??_C@_0CM@IHOJMAHM@Draw?5for?5points?5?$CFd?0?5?$CFd?0?5?$CFd?5of?5?$CFd@ 0041a0ec     BaseEngine.obj
 0002:00001120       ??_C@_0BG@KPFFDCIH@?7Copy?5point?5?$CFd?5to?5?$CFd?6?$AA@ 0041a120     BaseEngine.obj
 0002:00001140       __real@3ff0000000000000    0041a140     BaseEngine.obj
 0002:00001150       __real@3ff921fb54442d18    0041a150     BaseEngine.obj
 0002:00001160       __real@4000000000000000    0041a160     BaseEngine.obj
 0002:00001170       __real@4008000000000000    0041a170     BaseEngine.obj
 0002:00001180       __real@400921fb54442d18    0041a180     BaseEngine.obj
 0002:00001190       __real@400f6a7a2955385e    0041a190     BaseEngine.obj
 0002:000011a0       __real@4010000000000000    0041a1a0     BaseEngine.obj
 0002:000011b0       __real@401921fb54442d18    0041a1b0     BaseEngine.obj
 0002:000011c0       ??_7DisplayableObject@@6B@ 0041a1c0     DisplayableObject.obj
 0002:000011d8       ??_C@_0BI@GMOFELCF@Free?5font?3?5?$CFd?5point?5?$CFs?6?$AA@ 0041a1d8     FontManager.obj
 0002:000011f4       ??_C@_0BL@IIGPEFFA@Loading?5font?3?5?$CFd?5point?5?$CFs?6?$AA@ 0041a1f4     FontManager.obj
 0002:00001214       ??_C@_0BG@EJGFOME@Font?5loading?5failed?4?6?$AA@ 0041a214     FontManager.obj
 0002:00001230       __real@3f50624dd2f1a9fc    0041a230     JPGImage.obj
 0002:00001240       __xmm@41f00000000000000000000000000000 0041a240     JPGImage.obj
 0002:00001258       ??_7missile@@6B@           0041a258     missile.obj
 0002:00001270       ??_C@_0M@GLKOBEBL@missile?4png?$AA@ 0041a270     missile.obj
 0002:00001284       ??_7Shield@@6B@            0041a284     Shield.obj
 0002:0000129c       ??_C@_0L@PLALOGCL@shield?4png?$AA@ 0041a29c     Shield.obj
 0002:000012b0       ??_7Sky@@6B@               0041a2b0     Sky.obj
 0002:000012c8       ??_C@_0L@LKIPGPLG@cloud2?4png?$AA@ 0041a2c8     Sky.obj
 0002:000012d5       ?value@?$integral_constant@_N$0A@@std@@2_NB 0041a2d5     MSVCRT:ti_inst.obj
 0002:000012d6       ?value@?$integral_constant@_N$00@std@@2_NB 0041a2d6     MSVCRT:ti_inst.obj
 0002:000012dc       ??_7type_info@@6B@         0041a2dc     MSVCRT:ti_inst.obj
 0002:000012e0       ?ProcessDetach@NativeDll@<CrtImplementationDetails>@@0IB 0041a2e0     MSVCRT:unhandld.obj
 0002:000012e4       ?ProcessAttach@NativeDll@<CrtImplementationDetails>@@0IB 0041a2e4     MSVCRT:unhandld.obj
 0002:000012e8       ?ThreadAttach@NativeDll@<CrtImplementationDetails>@@0IB 0041a2e8     MSVCRT:unhandld.obj
 0002:000012ec       ?ThreadDetach@NativeDll@<CrtImplementationDetails>@@0IB 0041a2ec     MSVCRT:unhandld.obj
 0002:000012f0       ?ProcessVerifier@NativeDll@<CrtImplementationDetails>@@0IB 0041a2f0     MSVCRT:unhandld.obj
 0002:000012fc       ??_C@_07KJFPOMFC@?$CFs?3?5?$CFs?6?$AA@ 0041a2fc     sdlmain:SDL_win32_main.obj
 0002:00001304       ??_C@_0M@HFFOIJBL@Fatal?5Error?$AA@ 0041a304     sdlmain:SDL_win32_main.obj
 0002:00001310       ??_C@_0BJ@HFNMHALN@Out?5of?5memory?5?9?5aborting?$AA@ 0041a310     sdlmain:SDL_win32_main.obj
 0002:0000132c       ??_C@_0BA@KMDNPDDA@WinMain?$CI?$CJ?5error?$AA@ 0041a32c     sdlmain:SDL_win32_main.obj
 0002:0000133c       ??_C@_09KDGFPKMD@DDRAW?4DLL?$AA@ 0041a33c     sdlmain:SDL_win32_main.obj
 0002:00001348       __load_config_used         0041a348     MSVCRT:loadcfg.obj
 0002:000016a4       ??_R4Bullet@@6B@           0041a6a4     Bullet.obj
 0002:000016bc       ??_R3Bullet@@8             0041a6bc     Bullet.obj
 0002:000016d0       ??_R2Bullet@@8             0041a6d0     Bullet.obj
 0002:000016dc       ??_R1A@?0A@EA@Bullet@@8    0041a6dc     Bullet.obj
 0002:00001700       ??_R1A@?0A@EA@DisplayableObject@@8 0041a700     Bullet.obj
 0002:00001724       ??_R3DisplayableObject@@8  0041a724     Bullet.obj
 0002:00001738       ??_R2DisplayableObject@@8  0041a738     Bullet.obj
 0002:00001740       ??_R4EnemyBullet@@6B@      0041a740     EnemyBullet.obj
 0002:00001758       ??_R3EnemyBullet@@8        0041a758     EnemyBullet.obj
 0002:0000176c       ??_R2EnemyBullet@@8        0041a76c     EnemyBullet.obj
 0002:00001778       ??_R1A@?0A@EA@EnemyBullet@@8 0041a778     EnemyBullet.obj
 0002:0000179c       ??_R4EnemyFast@@6B@        0041a79c     EnemyFast.obj
 0002:000017b4       ??_R3EnemyFast@@8          0041a7b4     EnemyFast.obj
 0002:000017c8       ??_R2EnemyFast@@8          0041a7c8     EnemyFast.obj
 0002:000017d4       ??_R1A@?0A@EA@EnemyFast@@8 0041a7d4     EnemyFast.obj
 0002:000017f8       ??_R4JetShooter@@6B@       0041a7f8     JetShooter.obj
 0002:00001810       ??_R3JetShooter@@8         0041a810     JetShooter.obj
 0002:00001824       ??_R2JetShooter@@8         0041a824     JetShooter.obj
 0002:00001830       ??_R1A@?0A@EA@JetShooter@@8 0041a830     JetShooter.obj
 0002:00001854       ??_R1A@?0A@EA@BaseEngine@@8 0041a854     JetShooter.obj
 0002:00001878       ??_R3BaseEngine@@8         0041a878     JetShooter.obj
 0002:0000188c       ??_R2BaseEngine@@8         0041a88c     JetShooter.obj
 0002:00001894       ??_R4?$basic_stringbuf@DU?$char_traits@D@std@@V?$allocator@D@2@@std@@6B@ 0041a894     JetShooter.obj
 0002:000018ac       ??_R3?$basic_stringbuf@DU?$char_traits@D@std@@V?$allocator@D@2@@std@@8 0041a8ac     JetShooter.obj
 0002:000018c0       ??_R2?$basic_stringbuf@DU?$char_traits@D@std@@V?$allocator@D@2@@std@@8 0041a8c0     JetShooter.obj
 0002:000018cc       ??_R1A@?0A@EA@?$basic_stringbuf@DU?$char_traits@D@std@@V?$allocator@D@2@@std@@8 0041a8cc     JetShooter.obj
 0002:000018f0       ??_R1A@?0A@EA@?$basic_streambuf@DU?$char_traits@D@std@@@std@@8 0041a8f0     JetShooter.obj
 0002:00001914       ??_R3?$basic_streambuf@DU?$char_traits@D@std@@@std@@8 0041a914     JetShooter.obj
 0002:00001928       ??_R2?$basic_streambuf@DU?$char_traits@D@std@@@std@@8 0041a928     JetShooter.obj
 0002:00001930       ??_R4?$basic_stringstream@DU?$char_traits@D@std@@V?$allocator@D@2@@std@@6B@ 0041a930     JetShooter.obj
 0002:00001948       ??_R3?$basic_stringstream@DU?$char_traits@D@std@@V?$allocator@D@2@@std@@8 0041a948     JetShooter.obj
 0002:0000195c       ??_R2?$basic_stringstream@DU?$char_traits@D@std@@V?$allocator@D@2@@std@@8 0041a95c     JetShooter.obj
 0002:00001990       ??_R1A@?0A@EA@?$basic_stringstream@DU?$char_traits@D@std@@V?$allocator@D@2@@std@@8 0041a990     JetShooter.obj
 0002:000019b4       ??_R1A@?0A@EA@?$basic_iostream@DU?$char_traits@D@std@@@std@@8 0041a9b4     JetShooter.obj
 0002:000019d8       ??_R3?$basic_iostream@DU?$char_traits@D@std@@@std@@8 0041a9d8     JetShooter.obj
 0002:000019ec       ??_R2?$basic_iostream@DU?$char_traits@D@std@@@std@@8 0041a9ec     JetShooter.obj
 0002:00001a18       ??_R1A@?0A@EA@?$basic_istream@DU?$char_traits@D@std@@@std@@8 0041aa18     JetShooter.obj
 0002:00001a3c       ??_R3?$basic_istream@DU?$char_traits@D@std@@@std@@8 0041aa3c     JetShooter.obj
 0002:00001a50       ??_R2?$basic_istream@DU?$char_traits@D@std@@@std@@8 0041aa50     JetShooter.obj
 0002:00001a64       ??_R1A@A@3FA@?$basic_ios@DU?$char_traits@D@std@@@std@@8 0041aa64     JetShooter.obj
 0002:00001a88       ??_R3?$basic_ios@DU?$char_traits@D@std@@@std@@8 0041aa88     JetShooter.obj
 0002:00001a9c       ??_R2?$basic_ios@DU?$char_traits@D@std@@@std@@8 0041aa9c     JetShooter.obj
 0002:00001aac       ??_R1A@?0A@EA@?$basic_ios@DU?$char_traits@D@std@@@std@@8 0041aaac     JetShooter.obj
 0002:00001ad0       ??_R1A@?0A@EA@ios_base@std@@8 0041aad0     JetShooter.obj
 0002:00001af4       ??_R3ios_base@std@@8       0041aaf4     JetShooter.obj
 0002:00001b08       ??_R2ios_base@std@@8       0041ab08     JetShooter.obj
 0002:00001b14       ??_R17?0A@EA@?$_Iosb@H@std@@8 0041ab14     JetShooter.obj
 0002:00001b38       ??_R3?$_Iosb@H@std@@8      0041ab38     JetShooter.obj
 0002:00001b4c       ??_R2?$_Iosb@H@std@@8      0041ab4c     JetShooter.obj
 0002:00001b54       ??_R1A@?0A@EA@?$_Iosb@H@std@@8 0041ab54     JetShooter.obj
 0002:00001b78       ??_R1A@A@3EA@ios_base@std@@8 0041ab78     JetShooter.obj
 0002:00001b9c       ??_R17A@3EA@?$_Iosb@H@std@@8 0041ab9c     JetShooter.obj
 0002:00001bc0       ??_R1BA@?0A@EA@?$basic_ostream@DU?$char_traits@D@std@@@std@@8 0041abc0     JetShooter.obj
 0002:00001be4       ??_R3?$basic_ostream@DU?$char_traits@D@std@@@std@@8 0041abe4     JetShooter.obj
 0002:00001bf8       ??_R2?$basic_ostream@DU?$char_traits@D@std@@@std@@8 0041abf8     JetShooter.obj
 0002:00001c0c       ??_R1A@?0A@EA@?$basic_ostream@DU?$char_traits@D@std@@@std@@8 0041ac0c     JetShooter.obj
 0002:00001c30       ??_R4?$basic_filebuf@DU?$char_traits@D@std@@@std@@6B@ 0041ac30     JetShooter.obj
 0002:00001c48       ??_R3?$basic_filebuf@DU?$char_traits@D@std@@@std@@8 0041ac48     JetShooter.obj
 0002:00001c5c       ??_R2?$basic_filebuf@DU?$char_traits@D@std@@@std@@8 0041ac5c     JetShooter.obj
 0002:00001c68       ??_R1A@?0A@EA@?$basic_filebuf@DU?$char_traits@D@std@@@std@@8 0041ac68     JetShooter.obj
 0002:00001c8c       ??_R4?$basic_ifstream@DU?$char_traits@D@std@@@std@@6B@ 0041ac8c     JetShooter.obj
 0002:00001ca4       ??_R3?$basic_ifstream@DU?$char_traits@D@std@@@std@@8 0041aca4     JetShooter.obj
 0002:00001cb8       ??_R2?$basic_ifstream@DU?$char_traits@D@std@@@std@@8 0041acb8     JetShooter.obj
 0002:00001cd4       ??_R1A@?0A@EA@?$basic_ifstream@DU?$char_traits@D@std@@@std@@8 0041acd4     JetShooter.obj
 0002:00001cf8       ??_R4?$basic_ofstream@DU?$char_traits@D@std@@@std@@6B@ 0041acf8     JetShooter.obj
 0002:00001d10       ??_R3?$basic_ofstream@DU?$char_traits@D@std@@@std@@8 0041ad10     JetShooter.obj
 0002:00001d24       ??_R2?$basic_ofstream@DU?$char_traits@D@std@@@std@@8 0041ad24     JetShooter.obj
 0002:00001d40       ??_R1A@?0A@EA@?$basic_ofstream@DU?$char_traits@D@std@@@std@@8 0041ad40     JetShooter.obj
 0002:00001d64       ??_R4error_category@std@@6B@ 0041ad64     JetShooter.obj
 0002:00001d7c       ??_R3error_category@std@@8 0041ad7c     JetShooter.obj
 0002:00001d90       ??_R2error_category@std@@8 0041ad90     JetShooter.obj
 0002:00001d98       ??_R1A@?0A@EA@error_category@std@@8 0041ad98     JetShooter.obj
 0002:00001dbc       ??_R4_Generic_error_category@std@@6B@ 0041adbc     JetShooter.obj
 0002:00001dd4       ??_R3_Generic_error_category@std@@8 0041add4     JetShooter.obj
 0002:00001de8       ??_R2_Generic_error_category@std@@8 0041ade8     JetShooter.obj
 0002:00001df4       ??_R1A@?0A@EA@_Generic_error_category@std@@8 0041adf4     JetShooter.obj
 0002:00001e18       ??_R4_Iostream_error_category@std@@6B@ 0041ae18     JetShooter.obj
 0002:00001e30       ??_R3_Iostream_error_category@std@@8 0041ae30     JetShooter.obj
 0002:00001e44       ??_R2_Iostream_error_category@std@@8 0041ae44     JetShooter.obj
 0002:00001e54       ??_R1A@?0A@EA@_Iostream_error_category@std@@8 0041ae54     JetShooter.obj
 0002:00001e78       ??_R4_System_error_category@std@@6B@ 0041ae78     JetShooter.obj
 0002:00001e90       ??_R3_System_error_category@std@@8 0041ae90     JetShooter.obj
 0002:00001ea4       ??_R2_System_error_category@std@@8 0041aea4     JetShooter.obj
 0002:00001eb4       ??_R1A@?0A@EA@_System_error_category@std@@8 0041aeb4     JetShooter.obj
 0002:00001ed8       ??_R4EnemyJet@@6B@         0041aed8     EnemyJet.obj
 0002:00001ef0       ??_R3EnemyJet@@8           0041aef0     EnemyJet.obj
 0002:00001f04       ??_R2EnemyJet@@8           0041af04     EnemyJet.obj
 0002:00001f10       ??_R1A@?0A@EA@EnemyJet@@8  0041af10     EnemyJet.obj
 0002:00001f34       ??_R4Jet@@6B@              0041af34     Jet.obj
 0002:00001f4c       ??_R3Jet@@8                0041af4c     Jet.obj
 0002:00001f60       ??_R2Jet@@8                0041af60     Jet.obj
 0002:00001f6c       ??_R1A@?0A@EA@Jet@@8       0041af6c     Jet.obj
 0002:00001f90       ??_R4LargeEnemyJet@@6B@    0041af90     LargeEnemyJet.obj
 0002:00001fa8       ??_R3LargeEnemyJet@@8      0041afa8     LargeEnemyJet.obj
 0002:00001fbc       ??_R2LargeEnemyJet@@8      0041afbc     LargeEnemyJet.obj
 0002:00001fc8       ??_R1A@?0A@EA@LargeEnemyJet@@8 0041afc8     LargeEnemyJet.obj
 0002:00001fec       ??_R4BaseEngine@@6B@       0041afec     BaseEngine.obj
 0002:00002004       ??_R4DisplayableObject@@6B@ 0041b004     DisplayableObject.obj
 0002:0000201c       ??_R4missile@@6B@          0041b01c     missile.obj
 0002:00002034       ??_R3missile@@8            0041b034     missile.obj
 0002:00002048       ??_R2missile@@8            0041b048     missile.obj
 0002:00002054       ??_R1A@?0A@EA@missile@@8   0041b054     missile.obj
 0002:00002078       ??_R4Shield@@6B@           0041b078     Shield.obj
 0002:00002090       ??_R3Shield@@8             0041b090     Shield.obj
 0002:000020a4       ??_R2Shield@@8             0041b0a4     Shield.obj
 0002:000020b0       ??_R1A@?0A@EA@Shield@@8    0041b0b0     Shield.obj
 0002:000020d4       ??_R4Sky@@6B@              0041b0d4     Sky.obj
 0002:000020ec       ??_R3Sky@@8                0041b0ec     Sky.obj
 0002:00002100       ??_R2Sky@@8                0041b100     Sky.obj
 0002:0000210c       ??_R1A@?0A@EA@Sky@@8       0041b10c     Sky.obj
 0002:00002130       ??_R4type_info@@6B@        0041b130     MSVCRT:ti_inst.obj
 0002:00002144       ??_R3type_info@@8          0041b144     MSVCRT:ti_inst.obj
 0002:00002154       ??_R2type_info@@8          0041b154     MSVCRT:ti_inst.obj
 0002:0000215c       ??_R1A@?0A@EA@type_info@@8 0041b15c     MSVCRT:ti_inst.obj
 0002:000022e0       ___safe_se_handler_table   0041b2e0     <linker-defined>
 0002:0000247c       ___rtc_iaa                 0041b47c     MSVCRT:initsect.obj
 0002:00002580       ___rtc_izz                 0041b580     MSVCRT:initsect.obj
 0002:00002684       ___rtc_taa                 0041b684     MSVCRT:initsect.obj
 0002:00002788       ___rtc_tzz                 0041b788     MSVCRT:initsect.obj
 0002:00002e50       __CT??_R0?AVexception@std@@@8??0exception@std@@QAE@ABV01@@Z12 0041be50     JetShooter.obj
 0002:00002e70       __TI2?AVbad_cast@std@@     0041be70     JetShooter.obj
 0002:00002e84       __CTA2?AVbad_cast@std@@    0041be84     JetShooter.obj
 0002:00002e94       __CT??_R0?AVbad_cast@std@@@8??0bad_cast@std@@QAE@ABV01@@Z12 0041be94     JetShooter.obj
 0003:00000000       ___security_cookie         0041d000     MSVCRT:gs_cookie.obj
 0003:00000004       ___security_cookie_complement 0041d004     MSVCRT:gs_cookie.obj
 0003:00000010       ___defaultmatherr          0041d010     MSVCRT:merr.obj
 0003:00000020       ___globallocalestatus      0041d020     MSVCRT:xthdloc.obj
 0003:00000024       ___native_dllmain_reason   0041d024     MSVCRT:natstart.obj
 0003:00000140       ??_R0?AVBullet@@@8         0041d140     Bullet.obj
 0003:0000015c       ??_R0?AVDisplayableObject@@@8 0041d15c     Bullet.obj
 0003:00000184       ??_R0?AVEnemyBullet@@@8    0041d184     EnemyBullet.obj
 0003:000001a4       ??_R0?AVEnemyFast@@@8      0041d1a4     EnemyFast.obj
 0003:000001c0       ??_R0?AVexception@std@@@8  0041d1c0     JetShooter.obj
 0003:000001e4       ??_R0?AVbad_cast@std@@@8   0041d1e4     JetShooter.obj
 0003:00000204       ??_R0?AVJetShooter@@@8     0041d204     JetShooter.obj
 0003:00000224       ??_R0?AVBaseEngine@@@8     0041d224     JetShooter.obj
 0003:00000248       ??_R0?AV?$basic_stringbuf@DU?$char_traits@D@std@@V?$allocator@D@2@@std@@@8 0041d248     JetShooter.obj
 0003:000002a4       ??_R0?AV?$basic_streambuf@DU?$char_traits@D@std@@@std@@@8 0041d2a4     JetShooter.obj
 0003:000002f0       ??_R0?AV?$basic_stringstream@DU?$char_traits@D@std@@V?$allocator@D@2@@std@@@8 0041d2f0     JetShooter.obj
 0003:00000350       ??_R0?AV?$basic_iostream@DU?$char_traits@D@std@@@std@@@8 0041d350     JetShooter.obj
 0003:00000398       ??_R0?AV?$basic_istream@DU?$char_traits@D@std@@@std@@@8 0041d398     JetShooter.obj
 0003:000003e0       ??_R0?AV?$basic_ios@DU?$char_traits@D@std@@@std@@@8 0041d3e0     JetShooter.obj
 0003:00000420       ??_R0?AVios_base@std@@@8   0041d420     JetShooter.obj
 0003:00000440       ??_R0?AV?$_Iosb@H@std@@@8  0041d440     JetShooter.obj
 0003:00000464       ??_R0?AV?$basic_ostream@DU?$char_traits@D@std@@@std@@@8 0041d464     JetShooter.obj
 0003:000004ac       ??_R0?AV?$basic_filebuf@DU?$char_traits@D@std@@@std@@@8 0041d4ac     JetShooter.obj
 0003:000004f4       ??_R0?AV?$basic_ifstream@DU?$char_traits@D@std@@@std@@@8 0041d4f4     JetShooter.obj
 0003:0000053c       ??_R0?AV?$basic_ofstream@DU?$char_traits@D@std@@@std@@@8 0041d53c     JetShooter.obj
 0003:00000584       ??_R0?AVerror_category@std@@@8 0041d584     JetShooter.obj
 0003:000005ac       ??_R0?AV_Generic_error_category@std@@@8 0041d5ac     JetShooter.obj
 0003:000005e0       ??_R0?AV_Iostream_error_category@std@@@8 0041d5e0     JetShooter.obj
 0003:00000614       ??_R0?AV_System_error_category@std@@@8 0041d614     JetShooter.obj
 0003:00000648       ??_R0?AVEnemyJet@@@8       0041d648     EnemyJet.obj
 0003:00000664       ??_R0?AVJet@@@8            0041d664     Jet.obj
 0003:0000067c       ??_R0?AVLargeEnemyJet@@@8  0041d67c     LargeEnemyJet.obj
 0003:000006a0       ??_R0?AVmissile@@@8        0041d6a0     missile.obj
 0003:000006bc       ??_R0?AVShield@@@8         0041d6bc     Shield.obj
 0003:000006d8       ??_R0?AVSky@@@8            0041d6d8     Sky.obj
 0003:000006f0       ??_R0?AVtype_info@@@8      0041d6f0     MSVCRT:ti_inst.obj
 0003:0000082c       ?_Generic_object@?$_Error_objects@H@std@@2V_Generic_error_category@2@A 0041d82c     JetShooter.obj
 0003:00000830       ?_Iostream_object@?$_Error_objects@H@std@@2V_Iostream_error_category@2@A 0041d830     JetShooter.obj
 0003:00000834       ?_System_object@?$_Error_objects@H@std@@2V_System_error_category@2@A 0041d834     JetShooter.obj
 0003:00000838       ?id@?$num_put@DV?$back_insert_iterator@V?$basic_string@DU?$char_traits@D@std@@V?$allocator@D@2@@std@@@std@@@std@@2V0locale@2@A 0041d838     JetShooter.obj
 0003:0000083c       ?id@?$num_put@_WV?$back_insert_iterator@V?$basic_string@_WU?$char_traits@_W@std@@V?$allocator@_W@2@@std@@@std@@@std@@2V0locale@2@A 0041d83c     JetShooter.obj
 0003:00000840       ?_Stinit@?1??_Init@?$basic_filebuf@DU?$char_traits@D@std@@@std@@IAEXPAU_iobuf@@W4_Initfl@23@@Z@4HA 0041d840     JetShooter.obj
 0003:00000844       ?_Psave@?$_Facetptr@V?$codecvt@DDH@std@@@std@@2PBVfacet@locale@2@B 0041d844     JetShooter.obj
 0003:00000848       ?g_iCropLeft@ImageData@@1HA 0041d848     JPGImage.obj
 0003:0000084c       ?g_iCropRight@ImageData@@1HA 0041d84c     JPGImage.obj
 0003:00000850       ?g_iCropTop@ImageData@@1HA 0041d850     JPGImage.obj
 0003:00000854       ?g_iCropBottom@ImageData@@1HA 0041d854     JPGImage.obj
 0003:00000858       ?g_iRotation@@3HA          0041d858     JPGImage.obj
 0003:00000880       __commode                  0041d880     MSVCRT:xncommod.obj
 0003:00000884       __dowildcard               0041d884     MSVCRT:wildcard.obj
 0003:00000888       __newmode                  0041d888     MSVCRT:_newmode.obj
 0003:0000088c       __fmode                    0041d88c     MSVCRT:xtxtmode.obj
 0003:00000bb8       ___native_startup_lock     0041dbb8     <common>
 0003:00000bc8       ___native_startup_state    0041dbc8     <common>
 0003:00000bcc       ___onexitend               0041dbcc     <common>
 0003:00000bdc       ___onexitbegin             0041dbdc     <common>
 0003:00000be0       ___dyn_tls_init_callback   0041dbe0     <common>
 0004:00000000       __imp__GetSystemTimeAsFileTime@4 0041e000     kernel32:KERNEL32.dll
 0004:00000004       __imp__GetCurrentThreadId@0 0041e004     kernel32:KERNEL32.dll
 0004:00000008       __imp__GetCurrentProcessId@0 0041e008     kernel32:KERNEL32.dll
 0004:0000000c       __imp__QueryPerformanceCounter@4 0041e00c     kernel32:KERNEL32.dll
 0004:00000010       __imp__DecodePointer@4     0041e010     kernel32:KERNEL32.dll
 0004:00000014       __imp__EncodePointer@4     0041e014     kernel32:KERNEL32.dll
 0004:00000018       __imp__IsProcessorFeaturePresent@4 0041e018     kernel32:KERNEL32.dll
 0004:0000001c       __imp__GetModuleHandleA@4  0041e01c     kernel32:KERNEL32.dll
 0004:00000020       __imp__GetCommandLineA@0   0041e020     kernel32:KERNEL32.dll
 0004:00000024       __imp__FreeLibrary@4       0041e024     kernel32:KERNEL32.dll
 0004:00000028       __imp__LoadLibraryA@4      0041e028     kernel32:KERNEL32.dll
 0004:0000002c       __imp__IsDebuggerPresent@0 0041e02c     kernel32:KERNEL32.dll
 0004:00000030       \177KERNEL32_NULL_THUNK_DATA 0041e030     kernel32:KERNEL32.dll
 0004:00000064       __imp_?uflow@?$basic_streambuf@DU?$char_traits@D@std@@@std@@MAEHXZ 0041e064     msvcprt:MSVCP120.dll
 0004:00000068       __imp_?showmanyc@?$basic_streambuf@DU?$char_traits@D@std@@@std@@MAE_JXZ 0041e068     msvcprt:MSVCP120.dll
 0004:0000006c       __imp_?setbuf@?$basic_streambuf@DU?$char_traits@D@std@@@std@@MAEPAV12@PAD_J@Z 0041e06c     msvcprt:MSVCP120.dll
 0004:00000070       __imp_?imbue@?$basic_streambuf@DU?$char_traits@D@std@@@std@@MAEXABVlocale@2@@Z 0041e070     msvcprt:MSVCP120.dll
 0004:00000074       __imp_?_Unlock@?$basic_streambuf@DU?$char_traits@D@std@@@std@@UAEXXZ 0041e074     msvcprt:MSVCP120.dll
 0004:00000078       __imp_?_Lock@?$basic_streambuf@DU?$char_traits@D@std@@@std@@UAEXXZ 0041e078     msvcprt:MSVCP120.dll
 0004:0000007c       __imp_?_Fiopen@std@@YAPAU_iobuf@@PBDHH@Z 0041e07c     msvcprt:MSVCP120.dll
 0004:00000080       __imp_?xsgetn@?$basic_streambuf@DU?$char_traits@D@std@@@std@@MAE_JPAD_J@Z 0041e080     msvcprt:MSVCP120.dll
 0004:00000084       __imp_?xsputn@?$basic_streambuf@DU?$char_traits@D@std@@@std@@MAE_JPBD_J@Z 0041e084     msvcprt:MSVCP120.dll
 0004:00000088       __imp_?_BADOFF@std@@3_JB   0041e088     msvcprt:MSVCP120.dll
 0004:0000008c       __imp_?id@?$codecvt@DDH@std@@2V0locale@2@A 0041e08c     msvcprt:MSVCP120.dll
 0004:00000090       __imp_?cout@std@@3V?$basic_ostream@DU?$char_traits@D@std@@@1@A 0041e090     msvcprt:MSVCP120.dll
 0004:00000094       __imp_?sync@?$basic_streambuf@DU?$char_traits@D@std@@@std@@MAEHXZ 0041e094     msvcprt:MSVCP120.dll
 0004:00000098       __imp_??1?$basic_iostream@DU?$char_traits@D@std@@@std@@UAE@XZ 0041e098     msvcprt:MSVCP120.dll
 0004:0000009c       __imp_??0?$basic_iostream@DU?$char_traits@D@std@@@std@@QAE@PAV?$basic_streambuf@DU?$char_traits@D@std@@@1@@Z 0041e09c     msvcprt:MSVCP120.dll
 0004:000000a0       __imp_??5?$basic_istream@DU?$char_traits@D@std@@@std@@QAEAAV01@AAH@Z 0041e0a0     msvcprt:MSVCP120.dll
 0004:000000a4       __imp_?_Ipfx@?$basic_istream@DU?$char_traits@D@std@@@std@@QAE_N_N@Z 0041e0a4     msvcprt:MSVCP120.dll
 0004:000000a8       __imp_??1?$basic_istream@DU?$char_traits@D@std@@@std@@UAE@XZ 0041e0a8     msvcprt:MSVCP120.dll
 0004:000000ac       __imp_??0?$basic_istream@DU?$char_traits@D@std@@@std@@QAE@PAV?$basic_streambuf@DU?$char_traits@D@std@@@1@_N@Z 0041e0ac     msvcprt:MSVCP120.dll
 0004:000000b0       __imp_?flush@?$basic_ostream@DU?$char_traits@D@std@@@std@@QAEAAV12@XZ 0041e0b0     msvcprt:MSVCP120.dll
 0004:000000b4       __imp_??6?$basic_ostream@DU?$char_traits@D@std@@@std@@QAEAAV01@H@Z 0041e0b4     msvcprt:MSVCP120.dll
 0004:000000b8       __imp_?_Osfx@?$basic_ostream@DU?$char_traits@D@std@@@std@@QAEXXZ 0041e0b8     msvcprt:MSVCP120.dll
 0004:000000bc       __imp_??1?$basic_ostream@DU?$char_traits@D@std@@@std@@UAE@XZ 0041e0bc     msvcprt:MSVCP120.dll
 0004:000000c0       __imp_??0?$basic_ostream@DU?$char_traits@D@std@@@std@@QAE@PAV?$basic_streambuf@DU?$char_traits@D@std@@@1@_N@Z 0041e0c0     msvcprt:MSVCP120.dll
 0004:000000c4       __imp_??0?$basic_ios@DU?$char_traits@D@std@@@std@@IAE@XZ 0041e0c4     msvcprt:MSVCP120.dll
 0004:000000c8       __imp_?widen@?$basic_ios@DU?$char_traits@D@std@@@std@@QBEDD@Z 0041e0c8     msvcprt:MSVCP120.dll
 0004:000000cc       __imp_?fill@?$basic_ios@DU?$char_traits@D@std@@@std@@QBEDXZ 0041e0cc     msvcprt:MSVCP120.dll
 0004:000000d0       __imp_?rdbuf@?$basic_ios@DU?$char_traits@D@std@@@std@@QBEPAV?$basic_streambuf@DU?$char_traits@D@std@@@2@XZ 0041e0d0     msvcprt:MSVCP120.dll
 0004:000000d4       __imp_?tie@?$basic_ios@DU?$char_traits@D@std@@@std@@QBEPAV?$basic_ostream@DU?$char_traits@D@std@@@2@XZ 0041e0d4     msvcprt:MSVCP120.dll
 0004:000000d8       __imp_?setstate@?$basic_ios@DU?$char_traits@D@std@@@std@@QAEXH_N@Z 0041e0d8     msvcprt:MSVCP120.dll
 0004:000000dc       __imp_??1?$basic_ios@DU?$char_traits@D@std@@@std@@UAE@XZ 0041e0dc     msvcprt:MSVCP120.dll
 0004:000000e0       __imp_?_Init@?$basic_streambuf@DU?$char_traits@D@std@@@std@@IAEXPAPAD0PAH001@Z 0041e0e0     msvcprt:MSVCP120.dll
 0004:000000e4       __imp_?_Init@?$basic_streambuf@DU?$char_traits@D@std@@@std@@IAEXXZ 0041e0e4     msvcprt:MSVCP120.dll
 0004:000000e8       __imp_?_Pninc@?$basic_streambuf@DU?$char_traits@D@std@@@std@@IAEPADXZ 0041e0e8     msvcprt:MSVCP120.dll
 0004:000000ec       __imp_?setp@?$basic_streambuf@DU?$char_traits@D@std@@@std@@IAEXPAD00@Z 0041e0ec     msvcprt:MSVCP120.dll
 0004:000000f0       __imp_?setp@?$basic_streambuf@DU?$char_traits@D@std@@@std@@IAEXPAD0@Z 0041e0f0     msvcprt:MSVCP120.dll
 0004:000000f4       __imp_?pbump@?$basic_streambuf@DU?$char_traits@D@std@@@std@@IAEXH@Z 0041e0f4     msvcprt:MSVCP120.dll
 0004:000000f8       __imp_?_Gninc@?$basic_streambuf@DU?$char_traits@D@std@@@std@@IAEPADXZ 0041e0f8     msvcprt:MSVCP120.dll
 0004:000000fc       __imp_?_Gndec@?$basic_streambuf@DU?$char_traits@D@std@@@std@@IAEPADXZ 0041e0fc     msvcprt:MSVCP120.dll
 0004:00000100       __imp_?epptr@?$basic_streambuf@DU?$char_traits@D@std@@@std@@IBEPADXZ 0041e100     msvcprt:MSVCP120.dll
 0004:00000104       __imp_?setg@?$basic_streambuf@DU?$char_traits@D@std@@@std@@IAEXPAD00@Z 0041e104     msvcprt:MSVCP120.dll
 0004:00000108       __imp_?gbump@?$basic_streambuf@DU?$char_traits@D@std@@@std@@IAEXH@Z 0041e108     msvcprt:MSVCP120.dll
 0004:0000010c       __imp_?egptr@?$basic_streambuf@DU?$char_traits@D@std@@@std@@IBEPADXZ 0041e10c     msvcprt:MSVCP120.dll
 0004:00000110       __imp_?pptr@?$basic_streambuf@DU?$char_traits@D@std@@@std@@IBEPADXZ 0041e110     msvcprt:MSVCP120.dll
 0004:00000114       __imp_?pbase@?$basic_streambuf@DU?$char_traits@D@std@@@std@@IBEPADXZ 0041e114     msvcprt:MSVCP120.dll
 0004:00000118       __imp_?gptr@?$basic_streambuf@DU?$char_traits@D@std@@@std@@IBEPADXZ 0041e118     msvcprt:MSVCP120.dll
 0004:0000011c       __imp_?eback@?$basic_streambuf@DU?$char_traits@D@std@@@std@@IBEPADXZ 0041e11c     msvcprt:MSVCP120.dll
 0004:00000120       __imp_?sputn@?$basic_streambuf@DU?$char_traits@D@std@@@std@@QAE_JPBD_J@Z 0041e120     msvcprt:MSVCP120.dll
 0004:00000124       __imp_?sputc@?$basic_streambuf@DU?$char_traits@D@std@@@std@@QAEHD@Z 0041e124     msvcprt:MSVCP120.dll
 0004:00000128       __imp_?snextc@?$basic_streambuf@DU?$char_traits@D@std@@@std@@QAEHXZ 0041e128     msvcprt:MSVCP120.dll
 0004:0000012c       __imp_?sgetc@?$basic_streambuf@DU?$char_traits@D@std@@@std@@QAEHXZ 0041e12c     msvcprt:MSVCP120.dll
 0004:00000130       __imp_?sbumpc@?$basic_streambuf@DU?$char_traits@D@std@@@std@@QAEHXZ 0041e130     msvcprt:MSVCP120.dll
 0004:00000134       __imp_?getloc@?$basic_streambuf@DU?$char_traits@D@std@@@std@@QBE?AVlocale@2@XZ 0041e134     msvcprt:MSVCP120.dll
 0004:00000138       __imp_??1?$basic_streambuf@DU?$char_traits@D@std@@@std@@UAE@XZ 0041e138     msvcprt:MSVCP120.dll
 0004:0000013c       __imp_??0?$basic_streambuf@DU?$char_traits@D@std@@@std@@IAE@XZ 0041e13c     msvcprt:MSVCP120.dll
 0004:00000140       __imp_?width@ios_base@std@@QAE_J_J@Z 0041e140     msvcprt:MSVCP120.dll
 0004:00000144       __imp_?width@ios_base@std@@QBE_JXZ 0041e144     msvcprt:MSVCP120.dll
 0004:00000148       __imp_?flags@ios_base@std@@QBEHXZ 0041e148     msvcprt:MSVCP120.dll
 0004:0000014c       __imp_?good@ios_base@std@@QBE_NXZ 0041e14c     msvcprt:MSVCP120.dll
 0004:00000150       __imp_??Bios_base@std@@QBE_NXZ 0041e150     msvcprt:MSVCP120.dll
 0004:00000154       __imp_?_Winerror_map@std@@YAPBDH@Z 0041e154     msvcprt:MSVCP120.dll
 0004:00000158       __imp_?_Syserror_map@std@@YAPBDH@Z 0041e158     msvcprt:MSVCP120.dll
 0004:0000015c       __imp_?_Getcat@?$codecvt@DDH@std@@SAIPAPBVfacet@locale@2@PBV42@@Z 0041e15c     msvcprt:MSVCP120.dll
 0004:00000160       __imp_?unshift@?$codecvt@DDH@std@@QBEHAAHPAD1AAPAD@Z 0041e160     msvcprt:MSVCP120.dll
 0004:00000164       __imp_?out@?$codecvt@DDH@std@@QBEHAAHPBD1AAPBDPAD3AAPAD@Z 0041e164     msvcprt:MSVCP120.dll
 0004:00000168       __imp_?in@?$codecvt@DDH@std@@QBEHAAHPBD1AAPBDPAD3AAPAD@Z 0041e168     msvcprt:MSVCP120.dll
 0004:0000016c       __imp_?always_noconv@codecvt_base@std@@QBE_NXZ 0041e16c     msvcprt:MSVCP120.dll
 0004:00000170       __imp_?_Getgloballocale@locale@std@@CAPAV_Locimp@12@XZ 0041e170     msvcprt:MSVCP120.dll
 0004:00000174       __imp_??Bid@locale@std@@QAEIXZ 0041e174     msvcprt:MSVCP120.dll
 0004:00000178       __imp_??0id@locale@std@@QAE@I@Z 0041e178     msvcprt:MSVCP120.dll
 0004:0000017c       __imp_?_Xout_of_range@std@@YAXPBD@Z 0041e17c     msvcprt:MSVCP120.dll
 0004:00000180       __imp_?_Xlength_error@std@@YAXPBD@Z 0041e180     msvcprt:MSVCP120.dll
 0004:00000184       __imp_?_Xbad_alloc@std@@YAXXZ 0041e184     msvcprt:MSVCP120.dll
 0004:00000188       __imp_?uncaught_exception@std@@YA_NXZ 0041e188     msvcprt:MSVCP120.dll
 0004:0000018c       __imp_??0_Lockit@std@@QAE@H@Z 0041e18c     msvcprt:MSVCP120.dll
 0004:00000190       __imp_??1_Lockit@std@@QAE@XZ 0041e190     msvcprt:MSVCP120.dll
 0004:00000194       \177MSVCP120_NULL_THUNK_DATA 0041e194     msvcprt:MSVCP120.dll
 0004:000001fc       __imp___crt_debugger_hook  0041e1fc     MSVCRT:MSVCR120.dll
 0004:00000200       __imp____crtUnhandledException 0041e200     MSVCRT:MSVCR120.dll
 0004:00000204       __imp____crtTerminateProcess 0041e204     MSVCRT:MSVCR120.dll
 0004:00000208       __imp__strrchr             0041e208     MSVCRT:MSVCR120.dll
 0004:0000020c       __imp___except_handler4_common 0041e20c     MSVCRT:MSVCR120.dll
 0004:00000210       __imp___invoke_watson      0041e210     MSVCRT:MSVCR120.dll
 0004:00000214       __imp____crtSetUnhandledExceptionFilter 0041e214     MSVCRT:MSVCR120.dll
 0004:00000218       __imp_?terminate@@YAXXZ    0041e218     MSVCRT:MSVCR120.dll
 0004:0000021c       __imp___onexit             0041e21c     MSVCRT:MSVCR120.dll
 0004:00000220       __imp____dllonexit         0041e220     MSVCRT:MSVCR120.dll
 0004:00000224       __imp___calloc_crt         0041e224     MSVCRT:MSVCR120.dll
 0004:00000228       __imp___unlock             0041e228     MSVCRT:MSVCR120.dll
 0004:0000022c       __imp___lock               0041e22c     MSVCRT:MSVCR120.dll
 0004:00000230       __imp_??1type_info@@UAE@XZ 0041e230     MSVCRT:MSVCR120.dll
 0004:00000234       __imp___commode            0041e234     MSVCRT:MSVCR120.dll
 0004:00000238       __imp___fmode              0041e238     MSVCRT:MSVCR120.dll
 0004:0000023c       __imp____initenv           0041e23c     MSVCRT:MSVCR120.dll
 0004:00000240       __imp___initterm           0041e240     MSVCRT:MSVCR120.dll
 0004:00000244       __imp___initterm_e         0041e244     MSVCRT:MSVCR120.dll
 0004:00000248       __imp____setusermatherr    0041e248     MSVCRT:MSVCR120.dll
 0004:0000024c       __imp___configthreadlocale 0041e24c     MSVCRT:MSVCR120.dll
 0004:00000250       __imp___cexit              0041e250     MSVCRT:MSVCR120.dll
 0004:00000254       __imp___exit               0041e254     MSVCRT:MSVCR120.dll
 0004:00000258       __imp__exit                0041e258     MSVCRT:MSVCR120.dll
 0004:0000025c       __imp____set_app_type      0041e25c     MSVCRT:MSVCR120.dll
 0004:00000260       __imp____getmainargs       0041e260     MSVCRT:MSVCR120.dll
 0004:00000264       __imp___amsg_exit          0041e264     MSVCRT:MSVCR120.dll
 0004:00000268       __imp___XcptFilter         0041e268     MSVCRT:MSVCR120.dll
 0004:0000026c       __imp__strcmp              0041e26c     MSVCRT:MSVCR120.dll
 0004:00000270       __imp__strcpy              0041e270     MSVCRT:MSVCR120.dll
 0004:00000274       __imp__sin                 0041e274     MSVCRT:MSVCR120.dll
 0004:00000278       __imp__cos                 0041e278     MSVCRT:MSVCR120.dll
 0004:0000027c       __imp__atan                0041e27c     MSVCRT:MSVCR120.dll
 0004:00000280       __imp__printf              0041e280     MSVCRT:MSVCR120.dll
 0004:00000284       __imp__fprintf             0041e284     MSVCRT:MSVCR120.dll
 0004:00000288       __imp____iob_func          0041e288     MSVCRT:MSVCR120.dll
 0004:0000028c       __imp___CxxThrowException@8 0041e28c     MSVCRT:MSVCR120.dll
 0004:00000290       __imp_??1bad_cast@std@@UAE@XZ 0041e290     MSVCRT:MSVCR120.dll
 0004:00000294       __imp_??0exception@std@@QAE@ABV01@@Z 0041e294     MSVCRT:MSVCR120.dll
 0004:00000298       __imp_??0bad_cast@std@@QAE@ABV01@@Z 0041e298     MSVCRT:MSVCR120.dll
 0004:0000029c       __imp_??0bad_cast@std@@QAE@PBD@Z 0041e29c     MSVCRT:MSVCR120.dll
 0004:000002a0       __imp_??_U@YAPAXI@Z        0041e2a0     MSVCRT:MSVCR120.dll
 0004:000002a4       __imp___hypot              0041e2a4     MSVCRT:MSVCR120.dll
 0004:000002a8       __imp__memmove             0041e2a8     MSVCRT:MSVCR120.dll
 0004:000002ac       __imp__strlen              0041e2ac     MSVCRT:MSVCR120.dll
 0004:000002b0       __imp__memset              0041e2b0     MSVCRT:MSVCR120.dll
 0004:000002b4       __imp__memcpy_s            0041e2b4     MSVCRT:MSVCR120.dll
 0004:000002b8       __imp__memcpy              0041e2b8     MSVCRT:MSVCR120.dll
 0004:000002bc       __imp___unlock_file        0041e2bc     MSVCRT:MSVCR120.dll
 0004:000002c0       __imp___lock_file          0041e2c0     MSVCRT:MSVCR120.dll
 0004:000002c4       __imp__sprintf             0041e2c4     MSVCRT:MSVCR120.dll
 0004:000002c8       __imp__ungetc              0041e2c8     MSVCRT:MSVCR120.dll
 0004:000002cc       __imp__setvbuf             0041e2cc     MSVCRT:MSVCR120.dll
 0004:000002d0       __imp__fwrite              0041e2d0     MSVCRT:MSVCR120.dll
 0004:000002d4       __imp___fseeki64           0041e2d4     MSVCRT:MSVCR120.dll
 0004:000002d8       __imp__fsetpos             0041e2d8     MSVCRT:MSVCR120.dll
 0004:000002dc       __imp__fputc               0041e2dc     MSVCRT:MSVCR120.dll
 0004:000002e0       __imp__fgetpos             0041e2e0     MSVCRT:MSVCR120.dll
 0004:000002e4       __imp__fgetc               0041e2e4     MSVCRT:MSVCR120.dll
 0004:000002e8       __imp__fflush              0041e2e8     MSVCRT:MSVCR120.dll
 0004:000002ec       __imp__fclose              0041e2ec     MSVCRT:MSVCR120.dll
 0004:000002f0       __imp___purecall           0041e2f0     MSVCRT:MSVCR120.dll
 0004:000002f4       __imp__rand                0041e2f4     MSVCRT:MSVCR120.dll
 0004:000002f8       __imp____CxxFrameHandler3  0041e2f8     MSVCRT:MSVCR120.dll
 0004:000002fc       __imp_??3@YAXPAX@Z         0041e2fc     MSVCRT:MSVCR120.dll
 0004:00000300       __imp_??2@YAPAXI@Z         0041e300     MSVCRT:MSVCR120.dll
 0004:00000304       __imp__isspace             0041e304     MSVCRT:MSVCR120.dll
 0004:00000308       __imp___controlfp_s        0041e308     MSVCRT:MSVCR120.dll
 0004:0000030c       \177MSVCR120_NULL_THUNK_DATA 0041e30c     MSVCRT:MSVCR120.dll
 0004:0000036c       __imp__SDL_SetModuleHandle 0041e36c     sdl:SDL.dll
 0004:00000370       __imp__SDL_GetWMInfo       0041e370     sdl:SDL.dll
 0004:00000374       __imp__SDL_Quit            0041e374     sdl:SDL.dll
 0004:00000378       __imp__SDL_Init            0041e378     sdl:SDL.dll
 0004:0000037c       __imp__SDL_GetTicks        0041e37c     sdl:SDL.dll
 0004:00000380       __imp__SDL_PollEvent       0041e380     sdl:SDL.dll
 0004:00000384       __imp__SDL_WM_SetCaption   0041e384     sdl:SDL.dll
 0004:00000388       __imp__SDL_FillRect        0041e388     sdl:SDL.dll
 0004:0000038c       __imp__SDL_UpperBlit       0041e38c     sdl:SDL.dll
 0004:00000390       __imp__SDL_UnlockSurface   0041e390     sdl:SDL.dll
 0004:00000394       __imp__SDL_LockSurface     0041e394     sdl:SDL.dll
 0004:00000398       __imp__SDL_CreateRGBSurface 0041e398     sdl:SDL.dll
 0004:0000039c       __imp__SDL_UpdateRect      0041e39c     sdl:SDL.dll
 0004:000003a0       __imp__SDL_UpdateRects     0041e3a0     sdl:SDL.dll
 0004:000003a4       __imp__SDL_SetVideoMode    0041e3a4     sdl:SDL.dll
 0004:000003a8       __imp__SDL_GetError        0041e3a8     sdl:SDL.dll
 0004:000003ac       __imp__SDL_FreeSurface     0041e3ac     sdl:SDL.dll
 0004:000003b0       __imp__SDL_strlcpy         0041e3b0     sdl:SDL.dll
 0004:000003b4       \177SDL_NULL_THUNK_DATA    0041e3b4     sdl:SDL.dll
 0004:000003ec       __imp__IMG_Load            0041e3ec     SDL_image:SDL_image.dll
 0004:000003f0       \177SDL_image_NULL_THUNK_DATA 0041e3f0     SDL_image:SDL_image.dll
 0004:0000041c       __imp__TTF_Init            0041e41c     SDL_ttf:SDL_ttf.dll
 0004:00000420       __imp__TTF_CloseFont       0041e420     SDL_ttf:SDL_ttf.dll
 0004:00000424       __imp__TTF_OpenFont        0041e424     SDL_ttf:SDL_ttf.dll
 0004:00000428       __imp__TTF_Quit            0041e428     SDL_ttf:SDL_ttf.dll
 0004:0000042c       __imp__TTF_RenderText_Blended 0041e42c     SDL_ttf:SDL_ttf.dll
 0004:00000430       \177SDL_ttf_NULL_THUNK_DATA 0041e430     SDL_ttf:SDL_ttf.dll
 0004:00000460       __imp__SetWindowPos@28     0041e460     user32:USER32.dll
 0004:00000464       \177USER32_NULL_THUNK_DATA 0041e464     user32:USER32.dll
 0004:00000490       __IMPORT_DESCRIPTOR_SDL    0041e490     sdl:SDL.dll
 0004:000004a4       __IMPORT_DESCRIPTOR_SDL_ttf 0041e4a4     SDL_ttf:SDL_ttf.dll
 0004:000004b8       __IMPORT_DESCRIPTOR_SDL_image 0041e4b8     SDL_image:SDL_image.dll
 0004:000004cc       __IMPORT_DESCRIPTOR_USER32 0041e4cc     user32:USER32.dll
 0004:000004e0       __IMPORT_DESCRIPTOR_MSVCR120 0041e4e0     MSVCRT:MSVCR120.dll
 0004:000004f4       __IMPORT_DESCRIPTOR_MSVCP120 0041e4f4     msvcprt:MSVCP120.dll
 0004:00000508       __IMPORT_DESCRIPTOR_KERNEL32 0041e508     kernel32:KERNEL32.dll
 0004:0000051c       __NULL_IMPORT_DESCRIPTOR   0041e51c     sdl:SDL.dll
